

Microchip MPLAB XC8 Assembler V2.40 build 20220703182018 
                                                                                               Fri Nov 18 00:10:09 2022

Microchip MPLAB XC8 C Compiler v2.40 (Free license) build 20220703182018 Og1 
     1                           	processor	16F887
     2                           	pagewidth 120
     3                           	opt	flic
     4                           	psect	cinit,global,class=CODE,merge=1,delta=2
     5                           	psect	bssCOMMON,global,class=COMMON,space=1,delta=1,noexec
     6                           	psect	bssBANK0,global,class=BANK0,space=1,delta=1,noexec
     7                           	psect	clrtext,global,class=CODE,delta=2
     8                           	psect	cstackCOMMON,global,class=COMMON,space=1,delta=1,noexec
     9                           	psect	cstackBANK0,global,class=BANK0,space=1,delta=1,noexec
    10                           	psect	maintext,global,class=CODE,split=1,delta=2
    11                           	psect	text1,local,class=CODE,merge=1,delta=2
    12                           	psect	text2,local,class=CODE,merge=1,delta=2
    13                           	psect	text3,local,class=CODE,merge=1,delta=2
    14                           	psect	text4,local,class=CODE,merge=1,delta=2
    15                           	psect	text5,local,class=CODE,merge=1,delta=2
    16                           	psect	text6,local,class=CODE,merge=1,delta=2
    17                           	psect	text7,local,class=CODE,merge=1,delta=2
    18                           	psect	text8,local,class=CODE,merge=1,delta=2
    19                           	psect	text9,local,class=CODE,merge=1,delta=2
    20                           	psect	text10,local,class=CODE,merge=1,delta=2
    21                           	psect	text11,local,class=CODE,merge=1,delta=2
    22                           	psect	text12,local,class=CODE,merge=1,delta=2
    23                           	psect	text13,local,class=CODE,merge=1,delta=2,group=1
    24                           	psect	text14,local,class=CODE,merge=1,delta=2
    25                           	psect	text15,local,class=CODE,merge=1,delta=2
    26                           	psect	text16,local,class=CODE,merge=1,delta=2
    27                           	psect	text17,local,class=CODE,merge=1,delta=2
    28                           	psect	text18,local,class=CODE,merge=1,delta=2
    29                           	psect	text19,local,class=CODE,merge=1,delta=2,group=1
    30                           	psect	text20,local,class=CODE,merge=1,delta=2
    31                           	psect	text21,local,class=CODE,merge=1,delta=2
    32                           	psect	text22,local,class=CODE,merge=1,delta=2
    33                           	psect	intentry,global,class=CODE,delta=2
    34                           	psect	text23,local,class=CODE,merge=1,delta=2
    35                           	psect	text24,local,class=CODE,merge=1,delta=2
    36                           	psect	text25,local,class=CODE,merge=1,delta=2
    37                           	psect	idloc,global,abs,ovrld,class=IDLOC,space=5,delta=2,noexec
    38                           	psect	config,global,abs,ovrld,class=CONFIG,space=4,delta=2,noexec
    39                           	dabs	1,0x7E,2
    40     0000                     
    41                           ; Version 2.40
    42                           ; Generated 17/11/2021 GMT
    43                           ; 
    44                           ; Copyright © 2021, Microchip Technology Inc. and its subsidiaries ("Microchip")
    45                           ; All rights reserved.
    46                           ; 
    47                           ; This software is developed by Microchip Technology Inc. and its subsidiaries ("Microch
      +                          ip").
    48                           ; 
    49                           ; Redistribution and use in source and binary forms, with or without modification, are
    50                           ; permitted provided that the following conditions are met:
    51                           ; 
    52                           ;     1. Redistributions of source code must retain the above copyright notice, this lis
      +                          t of
    53                           ;        conditions and the following disclaimer.
    54                           ; 
    55                           ;     2. Redistributions in binary form must reproduce the above copyright notice, this 
      +                          list
    56                           ;        of conditions and the following disclaimer in the documentation and/or other
    57                           ;        materials provided with the distribution. Publication is not required when
    58                           ;        this file is used in an embedded application.
    59                           ; 
    60                           ;     3. Microchip's name may not be used to endorse or promote products derived from th
      +                          is
    61                           ;        software without specific prior written permission.
    62                           ; 
    63                           ; THIS SOFTWARE IS PROVIDED BY MICROCHIP "AS IS" AND ANY EXPRESS OR IMPLIED WARRANTIES,
    64                           ; INCLUDING, BUT NOT LIMITED TO, THE IMPLIED WARRANTIES OF MERCHANTABILITY AND FITNESS F
      +                          OR
    65                           ; PURPOSE ARE DISCLAIMED.  IN NO EVENT SHALL MICROCHIP BE LIABLE FOR ANY DIRECT, INDIREC
      +                          T,
    66                           ; INCIDENTAL, SPECIAL, EXEMPLARY, OR CONSEQUENTIAL DAMAGES (INCLUDING BUT NOT LIMITED TO
    67                           ; PROCUREMENT OF SUBSTITUTE GOODS OR SERVICES; LOSS OF USE, DATA OR PROFITS; OR BUSINESS
    68                           ; INTERRUPTION) HOWSOEVER CAUSED AND ON ANY THEORY OF LIABILITY, WHETHER IN CONTRACT, ST
      +                          RICT
    69                           ; LIABILITY, OR TORT (INCLUDING NEGLIGENCE OR OTHERWISE) ARISING IN ANY WAY OUT OF THE U
      +                          SE OF
    70                           ; THIS SOFTWARE, EVEN IF ADVISED OF THE POSSIBILITY OF SUCH DAMAGE.
    71                           ; 
    72                           ; 
    73                           ; Code-generator required, PIC16F887 Definitions
    74                           ; 
    75                           ; SFR Addresses
    76     0000                     	;# 
    77     0001                     	;# 
    78     0002                     	;# 
    79     0003                     	;# 
    80     0004                     	;# 
    81     0005                     	;# 
    82     0006                     	;# 
    83     0007                     	;# 
    84     0008                     	;# 
    85     0009                     	;# 
    86     000A                     	;# 
    87     000B                     	;# 
    88     000C                     	;# 
    89     000D                     	;# 
    90     000E                     	;# 
    91     000E                     	;# 
    92     000F                     	;# 
    93     0010                     	;# 
    94     0011                     	;# 
    95     0012                     	;# 
    96     0013                     	;# 
    97     0014                     	;# 
    98     0015                     	;# 
    99     0015                     	;# 
   100     0016                     	;# 
   101     0017                     	;# 
   102     0018                     	;# 
   103     0019                     	;# 
   104     001A                     	;# 
   105     001B                     	;# 
   106     001B                     	;# 
   107     001C                     	;# 
   108     001D                     	;# 
   109     001E                     	;# 
   110     001F                     	;# 
   111     0081                     	;# 
   112     0085                     	;# 
   113     0086                     	;# 
   114     0087                     	;# 
   115     0088                     	;# 
   116     0089                     	;# 
   117     008C                     	;# 
   118     008D                     	;# 
   119     008E                     	;# 
   120     008F                     	;# 
   121     0090                     	;# 
   122     0091                     	;# 
   123     0092                     	;# 
   124     0093                     	;# 
   125     0093                     	;# 
   126     0093                     	;# 
   127     0094                     	;# 
   128     0095                     	;# 
   129     0096                     	;# 
   130     0097                     	;# 
   131     0098                     	;# 
   132     0099                     	;# 
   133     009A                     	;# 
   134     009B                     	;# 
   135     009C                     	;# 
   136     009D                     	;# 
   137     009E                     	;# 
   138     009F                     	;# 
   139     0105                     	;# 
   140     0107                     	;# 
   141     0108                     	;# 
   142     0109                     	;# 
   143     010C                     	;# 
   144     010C                     	;# 
   145     010D                     	;# 
   146     010E                     	;# 
   147     010F                     	;# 
   148     0185                     	;# 
   149     0187                     	;# 
   150     0188                     	;# 
   151     0189                     	;# 
   152     018C                     	;# 
   153     018D                     	;# 
   154     0000                     	;# 
   155     0001                     	;# 
   156     0002                     	;# 
   157     0003                     	;# 
   158     0004                     	;# 
   159     0005                     	;# 
   160     0006                     	;# 
   161     0007                     	;# 
   162     0008                     	;# 
   163     0009                     	;# 
   164     000A                     	;# 
   165     000B                     	;# 
   166     000C                     	;# 
   167     000D                     	;# 
   168     000E                     	;# 
   169     000E                     	;# 
   170     000F                     	;# 
   171     0010                     	;# 
   172     0011                     	;# 
   173     0012                     	;# 
   174     0013                     	;# 
   175     0014                     	;# 
   176     0015                     	;# 
   177     0015                     	;# 
   178     0016                     	;# 
   179     0017                     	;# 
   180     0018                     	;# 
   181     0019                     	;# 
   182     001A                     	;# 
   183     001B                     	;# 
   184     001B                     	;# 
   185     001C                     	;# 
   186     001D                     	;# 
   187     001E                     	;# 
   188     001F                     	;# 
   189     0081                     	;# 
   190     0085                     	;# 
   191     0086                     	;# 
   192     0087                     	;# 
   193     0088                     	;# 
   194     0089                     	;# 
   195     008C                     	;# 
   196     008D                     	;# 
   197     008E                     	;# 
   198     008F                     	;# 
   199     0090                     	;# 
   200     0091                     	;# 
   201     0092                     	;# 
   202     0093                     	;# 
   203     0093                     	;# 
   204     0093                     	;# 
   205     0094                     	;# 
   206     0095                     	;# 
   207     0096                     	;# 
   208     0097                     	;# 
   209     0098                     	;# 
   210     0099                     	;# 
   211     009A                     	;# 
   212     009B                     	;# 
   213     009C                     	;# 
   214     009D                     	;# 
   215     009E                     	;# 
   216     009F                     	;# 
   217     0105                     	;# 
   218     0107                     	;# 
   219     0108                     	;# 
   220     0109                     	;# 
   221     010C                     	;# 
   222     010C                     	;# 
   223     010D                     	;# 
   224     010E                     	;# 
   225     010F                     	;# 
   226     0185                     	;# 
   227     0187                     	;# 
   228     0188                     	;# 
   229     0189                     	;# 
   230     018C                     	;# 
   231     018D                     	;# 
   232     0000                     	;# 
   233     0001                     	;# 
   234     0002                     	;# 
   235     0003                     	;# 
   236     0004                     	;# 
   237     0005                     	;# 
   238     0006                     	;# 
   239     0007                     	;# 
   240     0008                     	;# 
   241     0009                     	;# 
   242     000A                     	;# 
   243     000B                     	;# 
   244     000C                     	;# 
   245     000D                     	;# 
   246     000E                     	;# 
   247     000E                     	;# 
   248     000F                     	;# 
   249     0010                     	;# 
   250     0011                     	;# 
   251     0012                     	;# 
   252     0013                     	;# 
   253     0014                     	;# 
   254     0015                     	;# 
   255     0015                     	;# 
   256     0016                     	;# 
   257     0017                     	;# 
   258     0018                     	;# 
   259     0019                     	;# 
   260     001A                     	;# 
   261     001B                     	;# 
   262     001B                     	;# 
   263     001C                     	;# 
   264     001D                     	;# 
   265     001E                     	;# 
   266     001F                     	;# 
   267     0081                     	;# 
   268     0085                     	;# 
   269     0086                     	;# 
   270     0087                     	;# 
   271     0088                     	;# 
   272     0089                     	;# 
   273     008C                     	;# 
   274     008D                     	;# 
   275     008E                     	;# 
   276     008F                     	;# 
   277     0090                     	;# 
   278     0091                     	;# 
   279     0092                     	;# 
   280     0093                     	;# 
   281     0093                     	;# 
   282     0093                     	;# 
   283     0094                     	;# 
   284     0095                     	;# 
   285     0096                     	;# 
   286     0097                     	;# 
   287     0098                     	;# 
   288     0099                     	;# 
   289     009A                     	;# 
   290     009B                     	;# 
   291     009C                     	;# 
   292     009D                     	;# 
   293     009E                     	;# 
   294     009F                     	;# 
   295     0105                     	;# 
   296     0107                     	;# 
   297     0108                     	;# 
   298     0109                     	;# 
   299     010C                     	;# 
   300     010C                     	;# 
   301     010D                     	;# 
   302     010E                     	;# 
   303     010F                     	;# 
   304     0185                     	;# 
   305     0187                     	;# 
   306     0188                     	;# 
   307     0189                     	;# 
   308     018C                     	;# 
   309     018D                     	;# 
   310     0000                     	;# 
   311     0001                     	;# 
   312     0002                     	;# 
   313     0003                     	;# 
   314     0004                     	;# 
   315     0005                     	;# 
   316     0006                     	;# 
   317     0007                     	;# 
   318     0008                     	;# 
   319     0009                     	;# 
   320     000A                     	;# 
   321     000B                     	;# 
   322     000C                     	;# 
   323     000D                     	;# 
   324     000E                     	;# 
   325     000E                     	;# 
   326     000F                     	;# 
   327     0010                     	;# 
   328     0011                     	;# 
   329     0012                     	;# 
   330     0013                     	;# 
   331     0014                     	;# 
   332     0015                     	;# 
   333     0015                     	;# 
   334     0016                     	;# 
   335     0017                     	;# 
   336     0018                     	;# 
   337     0019                     	;# 
   338     001A                     	;# 
   339     001B                     	;# 
   340     001B                     	;# 
   341     001C                     	;# 
   342     001D                     	;# 
   343     001E                     	;# 
   344     001F                     	;# 
   345     0081                     	;# 
   346     0085                     	;# 
   347     0086                     	;# 
   348     0087                     	;# 
   349     0088                     	;# 
   350     0089                     	;# 
   351     008C                     	;# 
   352     008D                     	;# 
   353     008E                     	;# 
   354     008F                     	;# 
   355     0090                     	;# 
   356     0091                     	;# 
   357     0092                     	;# 
   358     0093                     	;# 
   359     0093                     	;# 
   360     0093                     	;# 
   361     0094                     	;# 
   362     0095                     	;# 
   363     0096                     	;# 
   364     0097                     	;# 
   365     0098                     	;# 
   366     0099                     	;# 
   367     009A                     	;# 
   368     009B                     	;# 
   369     009C                     	;# 
   370     009D                     	;# 
   371     009E                     	;# 
   372     009F                     	;# 
   373     0105                     	;# 
   374     0107                     	;# 
   375     0108                     	;# 
   376     0109                     	;# 
   377     010C                     	;# 
   378     010C                     	;# 
   379     010D                     	;# 
   380     010E                     	;# 
   381     010F                     	;# 
   382     0185                     	;# 
   383     0187                     	;# 
   384     0188                     	;# 
   385     0189                     	;# 
   386     018C                     	;# 
   387     018D                     	;# 
   388     0000                     	;# 
   389     0001                     	;# 
   390     0002                     	;# 
   391     0003                     	;# 
   392     0004                     	;# 
   393     0005                     	;# 
   394     0006                     	;# 
   395     0007                     	;# 
   396     0008                     	;# 
   397     0009                     	;# 
   398     000A                     	;# 
   399     000B                     	;# 
   400     000C                     	;# 
   401     000D                     	;# 
   402     000E                     	;# 
   403     000E                     	;# 
   404     000F                     	;# 
   405     0010                     	;# 
   406     0011                     	;# 
   407     0012                     	;# 
   408     0013                     	;# 
   409     0014                     	;# 
   410     0015                     	;# 
   411     0015                     	;# 
   412     0016                     	;# 
   413     0017                     	;# 
   414     0018                     	;# 
   415     0019                     	;# 
   416     001A                     	;# 
   417     001B                     	;# 
   418     001B                     	;# 
   419     001C                     	;# 
   420     001D                     	;# 
   421     001E                     	;# 
   422     001F                     	;# 
   423     0081                     	;# 
   424     0085                     	;# 
   425     0086                     	;# 
   426     0087                     	;# 
   427     0088                     	;# 
   428     0089                     	;# 
   429     008C                     	;# 
   430     008D                     	;# 
   431     008E                     	;# 
   432     008F                     	;# 
   433     0090                     	;# 
   434     0091                     	;# 
   435     0092                     	;# 
   436     0093                     	;# 
   437     0093                     	;# 
   438     0093                     	;# 
   439     0094                     	;# 
   440     0095                     	;# 
   441     0096                     	;# 
   442     0097                     	;# 
   443     0098                     	;# 
   444     0099                     	;# 
   445     009A                     	;# 
   446     009B                     	;# 
   447     009C                     	;# 
   448     009D                     	;# 
   449     009E                     	;# 
   450     009F                     	;# 
   451     0105                     	;# 
   452     0107                     	;# 
   453     0108                     	;# 
   454     0109                     	;# 
   455     010C                     	;# 
   456     010C                     	;# 
   457     010D                     	;# 
   458     010E                     	;# 
   459     010F                     	;# 
   460     0185                     	;# 
   461     0187                     	;# 
   462     0188                     	;# 
   463     0189                     	;# 
   464     018C                     	;# 
   465     018D                     	;# 
   466     0000                     	;# 
   467     0001                     	;# 
   468     0002                     	;# 
   469     0003                     	;# 
   470     0004                     	;# 
   471     0005                     	;# 
   472     0006                     	;# 
   473     0007                     	;# 
   474     0008                     	;# 
   475     0009                     	;# 
   476     000A                     	;# 
   477     000B                     	;# 
   478     000C                     	;# 
   479     000D                     	;# 
   480     000E                     	;# 
   481     000E                     	;# 
   482     000F                     	;# 
   483     0010                     	;# 
   484     0011                     	;# 
   485     0012                     	;# 
   486     0013                     	;# 
   487     0014                     	;# 
   488     0015                     	;# 
   489     0015                     	;# 
   490     0016                     	;# 
   491     0017                     	;# 
   492     0018                     	;# 
   493     0019                     	;# 
   494     001A                     	;# 
   495     001B                     	;# 
   496     001B                     	;# 
   497     001C                     	;# 
   498     001D                     	;# 
   499     001E                     	;# 
   500     001F                     	;# 
   501     0081                     	;# 
   502     0085                     	;# 
   503     0086                     	;# 
   504     0087                     	;# 
   505     0088                     	;# 
   506     0089                     	;# 
   507     008C                     	;# 
   508     008D                     	;# 
   509     008E                     	;# 
   510     008F                     	;# 
   511     0090                     	;# 
   512     0091                     	;# 
   513     0092                     	;# 
   514     0093                     	;# 
   515     0093                     	;# 
   516     0093                     	;# 
   517     0094                     	;# 
   518     0095                     	;# 
   519     0096                     	;# 
   520     0097                     	;# 
   521     0098                     	;# 
   522     0099                     	;# 
   523     009A                     	;# 
   524     009B                     	;# 
   525     009C                     	;# 
   526     009D                     	;# 
   527     009E                     	;# 
   528     009F                     	;# 
   529     0105                     	;# 
   530     0107                     	;# 
   531     0108                     	;# 
   532     0109                     	;# 
   533     010C                     	;# 
   534     010C                     	;# 
   535     010D                     	;# 
   536     010E                     	;# 
   537     010F                     	;# 
   538     0185                     	;# 
   539     0187                     	;# 
   540     0188                     	;# 
   541     0189                     	;# 
   542     018C                     	;# 
   543     018D                     	;# 
   544     0018                     _RCSTAbits	set	24
   545     001D                     _CCP2CON	set	29
   546     0012                     _T2CONbits	set	18
   547     0017                     _CCP1CON	set	23
   548     0005                     _PORTAbits	set	5
   549     001B                     _CCPR2L	set	27
   550     001D                     _CCP2CONbits	set	29
   551     0015                     _CCPR1L	set	21
   552     0017                     _CCP1CONbits	set	23
   553     001E                     _ADRESH	set	30
   554     001F                     _ADCON0bits	set	31
   555     001A                     _RCREG	set	26
   556     0008                     _PORTD	set	8
   557     0007                     _PORTC	set	7
   558     000C                     _PIR1bits	set	12
   559     0008                     _PORTDbits	set	8
   560     0006                     _PORTBbits	set	6
   561     0007                     _PORTCbits	set	7
   562     0001                     _TMR0	set	1
   563     000B                     _INTCONbits	set	11
   564     0092                     _TMR2ON	set	146
   565     0061                     _TMR2IF	set	97
   566     0066                     _ADIF	set	102
   567     0065                     _RCIF	set	101
   568     0098                     _TXSTAbits	set	152
   569     009A                     _SPBRGH	set	154
   570     0099                     _SPBRG	set	153
   571     0092                     _PR2	set	146
   572     0087                     _TRISCbits	set	135
   573     009F                     _ADCON1bits	set	159
   574     0085                     _TRISAbits	set	133
   575     008F                     _OSCCONbits	set	143
   576     0081                     _OPTION_REGbits	set	129
   577     0095                     _WPUB	set	149
   578     0096                     _IOCB	set	150
   579     0088                     _TRISD	set	136
   580     0087                     _TRISC	set	135
   581     0086                     _TRISB	set	134
   582     010C                     _EEDAT	set	268
   583     010D                     _EEADR	set	269
   584     0187                     _BAUDCTLbits	set	391
   585     0188                     _ANSELbits	set	392
   586     018D                     _EECON2	set	397
   587     018C                     _EECON1bits	set	396
   588     0189                     _ANSELH	set	393
   589     0C60                     _RD	set	3168
   590     0C61                     _WR	set	3169
   591                           
   592                           	psect	cinit
   593     0013                     start_initialization:	
   594                           ; #config settings
   595                           
   596     0013                     __initialization:
   597                           
   598                           ; Clear objects allocated to COMMON
   599     0013  01F0               	clrf	__pbssCOMMON& (0+127)
   600     0014  01F1               	clrf	(__pbssCOMMON+1)& (0+127)
   601     0015  01F2               	clrf	(__pbssCOMMON+2)& (0+127)
   602     0016  01F3               	clrf	(__pbssCOMMON+3)& (0+127)
   603     0017  01F4               	clrf	(__pbssCOMMON+4)& (0+127)
   604     0018  01F5               	clrf	(__pbssCOMMON+5)& (0+127)
   605                           
   606                           ; Clear objects allocated to BANK0
   607     0019  1383               	bcf	3,7	;select IRP bank0
   608     001A  303F               	movlw	low __pbssBANK0
   609     001B  0084               	movwf	4
   610     001C  3050               	movlw	low (__pbssBANK0+17)
   611     001D  120A  118A  27F7  120A  118A  	fcall	clear_ram0
   612     0022                     end_of_initialization:	
   613                           ;End of C runtime variable initialization code
   614                           
   615     0022                     __end_of__initialization:
   616     0022  0183               	clrf	3
   617     0023  120A  118A  2BCC   	ljmp	_main	;jump to C main() function
   618                           
   619                           	psect	bssCOMMON
   620     0070                     __pbssCOMMON:
   621     0070                     _pos:
   622     0070                     	ds	2
   623     0072                     _modo:
   624     0072                     	ds	2
   625     0074                     _HIGHpulse0:
   626     0074                     	ds	2
   627                           
   628                           	psect	bssBANK0
   629     003F                     __pbssBANK0:
   630     003F                     _B4Flag:
   631     003F                     	ds	2
   632     0041                     _cont:
   633     0041                     	ds	2
   634     0043                     _HIGHpulse1:
   635     0043                     	ds	2
   636     0045                     _vPWMh:
   637     0045                     	ds	2
   638     0047                     _vPWMl:
   639     0047                     	ds	2
   640     0049                     _v2PWM:
   641     0049                     	ds	2
   642     004B                     _v1PWM:
   643     004B                     	ds	2
   644     004D                     _uni:
   645     004D                     	ds	1
   646     004E                     _cent:
   647     004E                     	ds	1
   648     004F                     _dec:
   649     004F                     	ds	1
   650                           
   651                           	psect	clrtext
   652     07F7                     clear_ram0:	
   653                           ;	Called with FSR containing the base address, and
   654                           ;	W with the last address+1
   655                           
   656     07F7  0064               	clrwdt	;clear the watchdog before getting into this loop
   657     07F8                     clrloop0:
   658     07F8  0180               	clrf	0	;clear RAM location pointed to by FSR
   659     07F9  0A84               	incf	4,f	;increment pointer
   660     07FA  0604               	xorwf	4,w	;XOR with final address
   661     07FB  1903               	btfsc	3,2	;have we reached the end yet?
   662     07FC  3400               	retlw	0	;all done for this memory range, return
   663     07FD  0604               	xorwf	4,w	;XOR again to restore value
   664     07FE  2FF8               	goto	clrloop0	;do the next byte
   665                           
   666                           	psect	cstackCOMMON
   667     0076                     __pcstackCOMMON:
   668     0076                     ?_hightime:
   669     0076                     ?_LEDmod:	
   670                           ; 1 bytes @ 0x0
   671                           
   672     0076                     ?_LEDpos:	
   673                           ; 1 bytes @ 0x0
   674                           
   675     0076                     ?_setup:	
   676                           ; 1 bytes @ 0x0
   677                           
   678     0076                     ?_setupINTOSC:	
   679                           ; 1 bytes @ 0x0
   680                           
   681     0076                     ?_setup_ADC:	
   682                           ; 1 bytes @ 0x0
   683                           
   684     0076                     ?_setupPWM:	
   685                           ; 1 bytes @ 0x0
   686                           
   687     0076                     ?_setupTMR0:	
   688                           ; 1 bytes @ 0x0
   689                           
   690     0076                     ?_setup_portb:	
   691                           ; 1 bytes @ 0x0
   692                           
   693     0076                     ?_initUART:	
   694                           ; 1 bytes @ 0x0
   695                           
   696     0076                     ?_adafruitrec:	
   697                           ; 1 bytes @ 0x0
   698                           
   699     0076                     ?_modomanual:	
   700                           ; 1 bytes @ 0x0
   701                           
   702     0076                     ?_writepos:	
   703                           ; 1 bytes @ 0x0
   704                           
   705     0076                     ?_lecpos:	
   706                           ; 1 bytes @ 0x0
   707                           
   708     0076                     ?_isr:	
   709                           ; 1 bytes @ 0x0
   710                           
   711     0076                     ?_main:	
   712                           ; 1 bytes @ 0x0
   713                           
   714     0076                     ?_read_EEPROM:	
   715                           ; 1 bytes @ 0x0
   716                           
   717     0076                     ?_lecturanum:	
   718                           ; 1 bytes @ 0x0
   719                           
   720     0076                     ?i1_LEDpos:	
   721                           ; 1 bytes @ 0x0
   722                           
   723     0076                     ??i1_LEDpos:	
   724                           ; 1 bytes @ 0x0
   725                           
   726     0076                     ?i1_LEDmod:	
   727                           ; 1 bytes @ 0x0
   728                           
   729     0076                     ??i1_LEDmod:	
   730                           ; 1 bytes @ 0x0
   731                           
   732     0076                     hightime@tdelay:	
   733                           ; 1 bytes @ 0x0
   734                           
   735                           
   736                           ; 2 bytes @ 0x0
   737     0076                     	ds	2
   738     0078                     ??_hightime:
   739     0078                     ??_isr:	
   740                           ; 1 bytes @ 0x2
   741                           
   742                           
   743                           ; 1 bytes @ 0x2
   744     0078                     	ds	4
   745                           
   746                           	psect	cstackBANK0
   747     0020                     __pcstackBANK0:
   748     0020                     ??_LEDmod:
   749     0020                     ??_LEDpos:	
   750                           ; 1 bytes @ 0x0
   751                           
   752     0020                     ??_setup:	
   753                           ; 1 bytes @ 0x0
   754                           
   755     0020                     ??_setupINTOSC:	
   756                           ; 1 bytes @ 0x0
   757                           
   758     0020                     ??_setup_ADC:	
   759                           ; 1 bytes @ 0x0
   760                           
   761     0020                     ??_setupPWM:	
   762                           ; 1 bytes @ 0x0
   763                           
   764     0020                     ??_setupTMR0:	
   765                           ; 1 bytes @ 0x0
   766                           
   767     0020                     ??_setup_portb:	
   768                           ; 1 bytes @ 0x0
   769                           
   770     0020                     ??_initUART:	
   771                           ; 1 bytes @ 0x0
   772                           
   773     0020                     ?_write_EEPROM:	
   774                           ; 1 bytes @ 0x0
   775                           
   776     0020                     ??_read_EEPROM:	
   777                           ; 1 bytes @ 0x0
   778                           
   779     0020                     ??_lecturanum:	
   780                           ; 1 bytes @ 0x0
   781                           
   782     0020                     ?_chartoint:	
   783                           ; 1 bytes @ 0x0
   784                           
   785     0020                     ?___wmul:	
   786                           ; 2 bytes @ 0x0
   787                           
   788     0020                     write_EEPROM@data:	
   789                           ; 2 bytes @ 0x0
   790                           
   791     0020                     read_EEPROM@address:	
   792                           ; 1 bytes @ 0x0
   793                           
   794     0020                     setupINTOSC@IRCF:	
   795                           ; 1 bytes @ 0x0
   796                           
   797     0020                     ___wmul@multiplier:	
   798                           ; 1 bytes @ 0x0
   799                           
   800                           
   801                           ; 2 bytes @ 0x0
   802     0020                     	ds	1
   803     0021                     ??_lecpos:
   804     0021                     ??_write_EEPROM:	
   805                           ; 1 bytes @ 0x1
   806                           
   807     0021                     write_EEPROM@address:	
   808                           ; 1 bytes @ 0x1
   809                           
   810                           
   811                           ; 1 bytes @ 0x1
   812     0021                     	ds	1
   813     0022                     ??_writepos:
   814     0022                     ??_chartoint:	
   815                           ; 1 bytes @ 0x2
   816                           
   817     0022                     chartoint@num:	
   818                           ; 1 bytes @ 0x2
   819                           
   820     0022                     writepos@addr:	
   821                           ; 1 bytes @ 0x2
   822                           
   823     0022                     ___wmul@multiplicand:	
   824                           ; 2 bytes @ 0x2
   825                           
   826                           
   827                           ; 2 bytes @ 0x2
   828     0022                     	ds	1
   829     0023                     lecpos@addr:
   830                           
   831                           ; 2 bytes @ 0x3
   832     0023                     	ds	1
   833     0024                     ??___wmul:
   834     0024                     ___wmul@product:	
   835                           ; 1 bytes @ 0x4
   836                           
   837                           
   838                           ; 2 bytes @ 0x4
   839     0024                     	ds	2
   840     0026                     ?_convint:
   841     0026                     ?___awdiv:	
   842                           ; 2 bytes @ 0x6
   843                           
   844     0026                     convint@decenas:	
   845                           ; 2 bytes @ 0x6
   846                           
   847     0026                     ___awdiv@divisor:	
   848                           ; 1 bytes @ 0x6
   849                           
   850                           
   851                           ; 2 bytes @ 0x6
   852     0026                     	ds	1
   853     0027                     convint@unidades:
   854                           
   855                           ; 1 bytes @ 0x7
   856     0027                     	ds	1
   857     0028                     ??_convint:
   858     0028                     ___awdiv@dividend:	
   859                           ; 1 bytes @ 0x8
   860                           
   861                           
   862                           ; 2 bytes @ 0x8
   863     0028                     	ds	2
   864     002A                     ??___awdiv:
   865                           
   866                           ; 1 bytes @ 0xA
   867     002A                     	ds	1
   868     002B                     ___awdiv@counter:
   869                           
   870                           ; 1 bytes @ 0xB
   871     002B                     	ds	1
   872     002C                     convint@centenas:
   873     002C                     ___awdiv@sign:	
   874                           ; 1 bytes @ 0xC
   875                           
   876                           
   877                           ; 1 bytes @ 0xC
   878     002C                     	ds	1
   879     002D                     convint@u:
   880     002D                     ___awdiv@quotient:	
   881                           ; 2 bytes @ 0xD
   882                           
   883                           
   884                           ; 2 bytes @ 0xD
   885     002D                     	ds	2
   886     002F                     ?_mapeo:
   887     002F                     mapeo@valor:	
   888                           ; 2 bytes @ 0xF
   889                           
   890     002F                     convint@d:	
   891                           ; 2 bytes @ 0xF
   892                           
   893                           
   894                           ; 2 bytes @ 0xF
   895     002F                     	ds	2
   896     0031                     mapeo@inmin:
   897     0031                     convint@c:	
   898                           ; 2 bytes @ 0x11
   899                           
   900                           
   901                           ; 2 bytes @ 0x11
   902     0031                     	ds	2
   903     0033                     mapeo@inmax:
   904                           
   905                           ; 2 bytes @ 0x13
   906     0033                     	ds	2
   907     0035                     mapeo@outmin:
   908                           
   909                           ; 2 bytes @ 0x15
   910     0035                     	ds	2
   911     0037                     mapeo@outmax:
   912                           
   913                           ; 2 bytes @ 0x17
   914     0037                     	ds	2
   915     0039                     ??_mapeo:
   916     0039                     mapeo@resultado:	
   917                           ; 1 bytes @ 0x19
   918                           
   919                           
   920                           ; 2 bytes @ 0x19
   921     0039                     	ds	2
   922     003B                     ??_adafruitrec:
   923     003B                     ??_modomanual:	
   924                           ; 1 bytes @ 0x1B
   925                           
   926                           
   927                           ; 1 bytes @ 0x1B
   928     003B                     	ds	3
   929     003E                     ??_main:
   930                           
   931                           ; 1 bytes @ 0x1E
   932     003E                     	ds	1
   933                           
   934                           	psect	maintext
   935     03CC                     __pmaintext:	
   936 ;;
   937 ;;Main: autosize = 0, tempsize = 1, incstack = 0, save=0
   938 ;;
   939 ;; *************** function _main *****************
   940 ;; Defined at:
   941 ;;		line 131 in file "main.c"
   942 ;; Parameters:    Size  Location     Type
   943 ;;		None
   944 ;; Auto vars:     Size  Location     Type
   945 ;;		None
   946 ;; Return value:  Size  Location     Type
   947 ;;                  1    wreg      void 
   948 ;; Registers used:
   949 ;;		wreg, fsr0l, fsr0h, status,2, status,0, btemp+1, pclath, cstack
   950 ;; Tracked objects:
   951 ;;		On entry : B00/0
   952 ;;		On exit  : 0/0
   953 ;;		Unchanged: 0/0
   954 ;; Data sizes:     COMMON   BANK0   BANK1   BANK3   BANK2
   955 ;;      Params:         0       0       0       0       0
   956 ;;      Locals:         0       0       0       0       0
   957 ;;      Temps:          0       1       0       0       0
   958 ;;      Totals:         0       1       0       0       0
   959 ;;Total ram usage:        1 bytes
   960 ;; Hardware stack levels required when called: 5
   961 ;; This function calls:
   962 ;;		_adafruitrec
   963 ;;		_initUART
   964 ;;		_lecpos
   965 ;;		_modomanual
   966 ;;		_setup
   967 ;;		_setupINTOSC
   968 ;;		_setupPWM
   969 ;;		_setupTMR0
   970 ;;		_setup_ADC
   971 ;;		_setup_portb
   972 ;;		_writepos
   973 ;; This function is called by:
   974 ;;		Startup code after reset
   975 ;; This function uses a non-reentrant model
   976 ;;
   977                           
   978     03CC                     _main:	
   979                           ;psect for function _main
   980                           
   981     03CC                     l2885:	
   982                           ;incstack = 0
   983                           ; Regs used in _main: [wreg-fsr0h+status,2+status,0+btemp+1+pclath+cstack]
   984                           
   985                           
   986                           ;main.c: 132:     setup();
   987     03CC  120A  158A  273A  120A  118A  	fcall	_setup
   988                           
   989                           ;main.c: 133:     setupINTOSC(4);
   990     03D1  3004               	movlw	4
   991     03D2  120A  118A  2590  120A  118A  	fcall	_setupINTOSC
   992                           
   993                           ;main.c: 134:     setup_ADC();
   994     03D7  120A  118A  26B3  120A  118A  	fcall	_setup_ADC
   995                           
   996                           ;main.c: 135:     setupPWM();
   997     03DC  120A  158A  27DE  120A  118A  	fcall	_setupPWM
   998                           
   999                           ;main.c: 136:     setupTMR0();
  1000     03E1  120A  158A  2748  120A  118A  	fcall	_setupTMR0
  1001                           
  1002                           ;main.c: 137:     setup_portb();
  1003     03E6  120A  158A  272E  120A  118A  	fcall	_setup_portb
  1004                           
  1005                           ;main.c: 138:     initUART();
  1006     03EB  120A  158A  2771  120A  118A  	fcall	_initUART
  1007     03F0                     l2887:
  1008                           
  1009                           ;main.c: 139:     pos = 1;
  1010     03F0  3001               	movlw	1
  1011     03F1  00F0               	movwf	_pos
  1012     03F2  3000               	movlw	0
  1013     03F3  00F1               	movwf	_pos+1
  1014     03F4                     l2889:
  1015                           
  1016                           ;main.c: 140:     B4Flag = 0;
  1017     03F4  1283               	bcf	3,5	;RP0=0, select bank0
  1018     03F5  1303               	bcf	3,6	;RP1=0, select bank0
  1019     03F6  01BF               	clrf	_B4Flag
  1020     03F7  01C0               	clrf	_B4Flag+1
  1021     03F8                     l2891:
  1022                           
  1023                           ;main.c: 141:     PORTDbits.RD0 = 1;
  1024     03F8  1408               	bsf	8,0	;volatile
  1025     03F9                     l2893:
  1026                           
  1027                           ;main.c: 143:         if (PIR1bits.RCIF == 1){
  1028     03F9  1283               	bcf	3,5	;RP0=0, select bank0
  1029     03FA  1303               	bcf	3,6	;RP1=0, select bank0
  1030     03FB  1E8C               	btfss	12,5	;volatile
  1031     03FC  2BFE               	goto	u2481
  1032     03FD  2BFF               	goto	u2480
  1033     03FE                     u2481:
  1034     03FE  2C04               	goto	l2897
  1035     03FF                     u2480:
  1036     03FF                     l2895:
  1037                           
  1038                           ;main.c: 144:             adafruitrec();
  1039     03FF  120A  118A  2026  120A  118A  	fcall	_adafruitrec
  1040     0404                     l2897:
  1041                           
  1042                           ;main.c: 146:         if(modo != 1){
  1043     0404  0372               	decf	_modo,w
  1044     0405  0473               	iorwf	_modo+1,w
  1045     0406  1903               	btfsc	3,2
  1046     0407  2C09               	goto	u2491
  1047     0408  2C0A               	goto	u2490
  1048     0409                     u2491:
  1049     0409  2C26               	goto	l2909
  1050     040A                     u2490:
  1051     040A                     l2899:
  1052                           
  1053                           ;main.c: 147:             modomanual();
  1054     040A  120A  118A  21CC  120A  118A  	fcall	_modomanual
  1055     040F                     l2901:
  1056                           
  1057                           ;main.c: 148:             if (B4Flag == 1){
  1058     040F  1283               	bcf	3,5	;RP0=0, select bank0
  1059     0410  1303               	bcf	3,6	;RP1=0, select bank0
  1060     0411  033F               	decf	_B4Flag,w
  1061     0412  0440               	iorwf	_B4Flag+1,w
  1062     0413  1D03               	btfss	3,2
  1063     0414  2C16               	goto	u2501
  1064     0415  2C17               	goto	u2500
  1065     0416                     u2501:
  1066     0416  2C1E               	goto	l2907
  1067     0417                     u2500:
  1068     0417                     l2903:
  1069                           
  1070                           ;main.c: 149:                 B4Flag = 0;
  1071     0417  01BF               	clrf	_B4Flag
  1072     0418  01C0               	clrf	_B4Flag+1
  1073     0419                     l2905:
  1074                           
  1075                           ;main.c: 150:                 writepos();
  1076     0419  120A  118A  25F8  120A  118A  	fcall	_writepos
  1077     041E                     l2907:
  1078                           
  1079                           ;main.c: 152:             _delay((unsigned long)((1)*(1000000/4000.0)));
  1080     041E  3052               	movlw	82
  1081     041F  1283               	bcf	3,5	;RP0=0, select bank0
  1082     0420  1303               	bcf	3,6	;RP1=0, select bank0
  1083     0421  00BE               	movwf	??_main
  1084     0422                     u2537:
  1085     0422  0BBE               	decfsz	??_main,f
  1086     0423  2C22               	goto	u2537
  1087     0424  0000               	nop
  1088                           
  1089                           ;main.c: 153:         }
  1090     0425  2BF9               	goto	l2893
  1091     0426                     l2909:
  1092     0426  0372               	decf	_modo,w
  1093     0427  0473               	iorwf	_modo+1,w
  1094     0428  1D03               	btfss	3,2
  1095     0429  2C2B               	goto	u2511
  1096     042A  2C2C               	goto	u2510
  1097     042B                     u2511:
  1098     042B  2BF9               	goto	l2893
  1099     042C                     u2510:
  1100     042C                     l2911:
  1101                           
  1102                           ;main.c: 155:             if (B4Flag == 1){
  1103     042C  1283               	bcf	3,5	;RP0=0, select bank0
  1104     042D  1303               	bcf	3,6	;RP1=0, select bank0
  1105     042E  033F               	decf	_B4Flag,w
  1106     042F  0440               	iorwf	_B4Flag+1,w
  1107     0430  1D03               	btfss	3,2
  1108     0431  2C33               	goto	u2521
  1109     0432  2C34               	goto	u2520
  1110     0433                     u2521:
  1111     0433  2C3B               	goto	l2917
  1112     0434                     u2520:
  1113     0434                     l2913:
  1114                           
  1115                           ;main.c: 156:                 B4Flag = 0;
  1116     0434  01BF               	clrf	_B4Flag
  1117     0435  01C0               	clrf	_B4Flag+1
  1118     0436                     l2915:
  1119                           
  1120                           ;main.c: 157:                 lecpos();
  1121     0436  120A  118A  2444  120A  118A  	fcall	_lecpos
  1122     043B                     l2917:
  1123                           
  1124                           ;main.c: 159:             modomanual();
  1125     043B  120A  118A  21CC  120A  118A  	fcall	_modomanual
  1126     0440  2C1E               	goto	l2907
  1127     0441  120A  118A  2810   	ljmp	start
  1128     0444                     __end_of_main:
  1129                           
  1130                           	psect	text1
  1131     0F2E                     __ptext1:	
  1132 ;; *************** function _setup_portb *****************
  1133 ;; Defined at:
  1134 ;;		line 175 in file "main.c"
  1135 ;; Parameters:    Size  Location     Type
  1136 ;;		None
  1137 ;; Auto vars:     Size  Location     Type
  1138 ;;		None
  1139 ;; Return value:  Size  Location     Type
  1140 ;;                  1    wreg      void 
  1141 ;; Registers used:
  1142 ;;		wreg
  1143 ;; Tracked objects:
  1144 ;;		On entry : 0/0
  1145 ;;		On exit  : 0/0
  1146 ;;		Unchanged: 0/0
  1147 ;; Data sizes:     COMMON   BANK0   BANK1   BANK3   BANK2
  1148 ;;      Params:         0       0       0       0       0
  1149 ;;      Locals:         0       0       0       0       0
  1150 ;;      Temps:          0       0       0       0       0
  1151 ;;      Totals:         0       0       0       0       0
  1152 ;;Total ram usage:        0 bytes
  1153 ;; Hardware stack levels used: 1
  1154 ;; Hardware stack levels required when called: 2
  1155 ;; This function calls:
  1156 ;;		Nothing
  1157 ;; This function is called by:
  1158 ;;		_main
  1159 ;; This function uses a non-reentrant model
  1160 ;;
  1161                           
  1162     0F2E                     _setup_portb:	
  1163                           ;psect for function _setup_portb
  1164                           
  1165     0F2E                     l2729:	
  1166                           ;incstack = 0
  1167                           ; Regs used in _setup_portb: [wreg]
  1168                           
  1169                           
  1170                           ;main.c: 176:     TRISB = 0b11110000;
  1171     0F2E  30F0               	movlw	240
  1172     0F2F  1683               	bsf	3,5	;RP0=1, select bank1
  1173     0F30  1303               	bcf	3,6	;RP1=0, select bank1
  1174     0F31  0086               	movwf	6	;volatile
  1175     0F32                     l2731:
  1176                           
  1177                           ;main.c: 177:     INTCONbits.RBIE = 1;
  1178     0F32  158B               	bsf	11,3	;volatile
  1179     0F33                     l2733:
  1180                           
  1181                           ;main.c: 178:     INTCONbits.RBIF = 0;
  1182     0F33  100B               	bcf	11,0	;volatile
  1183                           
  1184                           ;main.c: 179:     IOCB = 0b11110000;
  1185     0F34  30F0               	movlw	240
  1186     0F35  0096               	movwf	22	;volatile
  1187                           
  1188                           ;main.c: 180:     WPUB = 0b11110000;
  1189     0F36  30F0               	movlw	240
  1190     0F37  0095               	movwf	21	;volatile
  1191     0F38                     l2735:
  1192                           
  1193                           ;main.c: 181:     OPTION_REGbits.nRBPU = 0;
  1194     0F38  1381               	bcf	1,7	;volatile
  1195     0F39                     l169:
  1196     0F39  0008               	return
  1197     0F3A                     __end_of_setup_portb:
  1198                           
  1199                           	psect	text2
  1200     06B3                     __ptext2:	
  1201 ;; *************** function _setup_ADC *****************
  1202 ;; Defined at:
  1203 ;;		line 11 in file "setupADC.c"
  1204 ;; Parameters:    Size  Location     Type
  1205 ;;		None
  1206 ;; Auto vars:     Size  Location     Type
  1207 ;;		None
  1208 ;; Return value:  Size  Location     Type
  1209 ;;                  1    wreg      void 
  1210 ;; Registers used:
  1211 ;;		wreg
  1212 ;; Tracked objects:
  1213 ;;		On entry : 0/0
  1214 ;;		On exit  : 0/0
  1215 ;;		Unchanged: 0/0
  1216 ;; Data sizes:     COMMON   BANK0   BANK1   BANK3   BANK2
  1217 ;;      Params:         0       0       0       0       0
  1218 ;;      Locals:         0       0       0       0       0
  1219 ;;      Temps:          0       1       0       0       0
  1220 ;;      Totals:         0       1       0       0       0
  1221 ;;Total ram usage:        1 bytes
  1222 ;; Hardware stack levels used: 1
  1223 ;; Hardware stack levels required when called: 2
  1224 ;; This function calls:
  1225 ;;		Nothing
  1226 ;; This function is called by:
  1227 ;;		_main
  1228 ;; This function uses a non-reentrant model
  1229 ;;
  1230                           
  1231     06B3                     _setup_ADC:	
  1232                           ;psect for function _setup_ADC
  1233                           
  1234     06B3                     l2703:	
  1235                           ;incstack = 0
  1236                           ; Regs used in _setup_ADC: [wreg]
  1237                           
  1238                           
  1239                           ;setupADC.c: 12:     PORTAbits.RA0 = 0;
  1240     06B3  1283               	bcf	3,5	;RP0=0, select bank0
  1241     06B4  1303               	bcf	3,6	;RP1=0, select bank0
  1242     06B5  1005               	bcf	5,0	;volatile
  1243                           
  1244                           ;setupADC.c: 13:     TRISAbits.TRISA0 = 1;
  1245     06B6  1683               	bsf	3,5	;RP0=1, select bank1
  1246     06B7  1303               	bcf	3,6	;RP1=0, select bank1
  1247     06B8  1405               	bsf	5,0	;volatile
  1248                           
  1249                           ;setupADC.c: 14:     ANSELbits.ANS0 = 1;
  1250     06B9  1683               	bsf	3,5	;RP0=1, select bank3
  1251     06BA  1703               	bsf	3,6	;RP1=1, select bank3
  1252     06BB  1408               	bsf	8,0	;volatile
  1253                           
  1254                           ;setupADC.c: 16:     PORTAbits.RA1 = 0;
  1255     06BC  1283               	bcf	3,5	;RP0=0, select bank0
  1256     06BD  1303               	bcf	3,6	;RP1=0, select bank0
  1257     06BE  1085               	bcf	5,1	;volatile
  1258                           
  1259                           ;setupADC.c: 17:     TRISAbits.TRISA1 = 1;
  1260     06BF  1683               	bsf	3,5	;RP0=1, select bank1
  1261     06C0  1303               	bcf	3,6	;RP1=0, select bank1
  1262     06C1  1485               	bsf	5,1	;volatile
  1263                           
  1264                           ;setupADC.c: 18:     ANSELbits.ANS1 = 1;
  1265     06C2  1683               	bsf	3,5	;RP0=1, select bank3
  1266     06C3  1703               	bsf	3,6	;RP1=1, select bank3
  1267     06C4  1488               	bsf	8,1	;volatile
  1268                           
  1269                           ;setupADC.c: 20:     PORTAbits.RA2 = 0;
  1270     06C5  1283               	bcf	3,5	;RP0=0, select bank0
  1271     06C6  1303               	bcf	3,6	;RP1=0, select bank0
  1272     06C7  1105               	bcf	5,2	;volatile
  1273                           
  1274                           ;setupADC.c: 21:     TRISAbits.TRISA2 = 1;
  1275     06C8  1683               	bsf	3,5	;RP0=1, select bank1
  1276     06C9  1303               	bcf	3,6	;RP1=0, select bank1
  1277     06CA  1505               	bsf	5,2	;volatile
  1278                           
  1279                           ;setupADC.c: 22:     ANSELbits.ANS2 = 1;
  1280     06CB  1683               	bsf	3,5	;RP0=1, select bank3
  1281     06CC  1703               	bsf	3,6	;RP1=1, select bank3
  1282     06CD  1508               	bsf	8,2	;volatile
  1283                           
  1284                           ;setupADC.c: 24:     PORTAbits.RA3 = 0;
  1285     06CE  1283               	bcf	3,5	;RP0=0, select bank0
  1286     06CF  1303               	bcf	3,6	;RP1=0, select bank0
  1287     06D0  1185               	bcf	5,3	;volatile
  1288                           
  1289                           ;setupADC.c: 25:     TRISAbits.TRISA3 = 1;
  1290     06D1  1683               	bsf	3,5	;RP0=1, select bank1
  1291     06D2  1303               	bcf	3,6	;RP1=0, select bank1
  1292     06D3  1585               	bsf	5,3	;volatile
  1293                           
  1294                           ;setupADC.c: 26:     ANSELbits.ANS3 = 1;
  1295     06D4  1683               	bsf	3,5	;RP0=1, select bank3
  1296     06D5  1703               	bsf	3,6	;RP1=1, select bank3
  1297     06D6  1588               	bsf	8,3	;volatile
  1298                           
  1299                           ;setupADC.c: 28:     ADCON0bits.ADCS1 = 0;
  1300     06D7  1283               	bcf	3,5	;RP0=0, select bank0
  1301     06D8  1303               	bcf	3,6	;RP1=0, select bank0
  1302     06D9  139F               	bcf	31,7	;volatile
  1303                           
  1304                           ;setupADC.c: 29:     ADCON0bits.ADCS0 = 1;
  1305     06DA  171F               	bsf	31,6	;volatile
  1306                           
  1307                           ;setupADC.c: 31:     ADCON1bits.VCFG1 = 0;
  1308     06DB  1683               	bsf	3,5	;RP0=1, select bank1
  1309     06DC  1303               	bcf	3,6	;RP1=0, select bank1
  1310     06DD  129F               	bcf	31,5	;volatile
  1311                           
  1312                           ;setupADC.c: 32:     ADCON1bits.VCFG0 = 0;
  1313     06DE  121F               	bcf	31,4	;volatile
  1314                           
  1315                           ;setupADC.c: 34:     ADCON1bits.ADFM = 0;
  1316     06DF  139F               	bcf	31,7	;volatile
  1317                           
  1318                           ;setupADC.c: 36:     ADCON0bits.ADON = 1;
  1319     06E0  1283               	bcf	3,5	;RP0=0, select bank0
  1320     06E1  1303               	bcf	3,6	;RP1=0, select bank0
  1321     06E2  141F               	bsf	31,0	;volatile
  1322     06E3                     l2705:
  1323                           
  1324                           ;setupADC.c: 37:     _delay((unsigned long)((100)*(1000000/4000000.0)));
  1325     06E3  3007               	movlw	7
  1326     06E4  1283               	bcf	3,5	;RP0=0, select bank0
  1327     06E5  1303               	bcf	3,6	;RP1=0, select bank0
  1328     06E6  00A0               	movwf	??_setup_ADC
  1329     06E7                     u2547:
  1330     06E7  0BA0               	decfsz	??_setup_ADC,f
  1331     06E8  2EE7               	goto	u2547
  1332     06E9  0000               	nop
  1333     06EA                     l353:
  1334     06EA  0008               	return
  1335     06EB                     __end_of_setup_ADC:
  1336                           
  1337                           	psect	text3
  1338     0F48                     __ptext3:	
  1339 ;; *************** function _setupTMR0 *****************
  1340 ;; Defined at:
  1341 ;;		line 184 in file "main.c"
  1342 ;; Parameters:    Size  Location     Type
  1343 ;;		None
  1344 ;; Auto vars:     Size  Location     Type
  1345 ;;		None
  1346 ;; Return value:  Size  Location     Type
  1347 ;;                  1    wreg      void 
  1348 ;; Registers used:
  1349 ;;		wreg, status,2, status,0
  1350 ;; Tracked objects:
  1351 ;;		On entry : 0/0
  1352 ;;		On exit  : 0/0
  1353 ;;		Unchanged: 0/0
  1354 ;; Data sizes:     COMMON   BANK0   BANK1   BANK3   BANK2
  1355 ;;      Params:         0       0       0       0       0
  1356 ;;      Locals:         0       0       0       0       0
  1357 ;;      Temps:          0       0       0       0       0
  1358 ;;      Totals:         0       0       0       0       0
  1359 ;;Total ram usage:        0 bytes
  1360 ;; Hardware stack levels used: 1
  1361 ;; Hardware stack levels required when called: 2
  1362 ;; This function calls:
  1363 ;;		Nothing
  1364 ;; This function is called by:
  1365 ;;		_main
  1366 ;; This function uses a non-reentrant model
  1367 ;;
  1368                           
  1369     0F48                     _setupTMR0:	
  1370                           ;psect for function _setupTMR0
  1371                           
  1372     0F48                     l2721:	
  1373                           ;incstack = 0
  1374                           ; Regs used in _setupTMR0: [wreg+status,2+status,0]
  1375                           
  1376                           
  1377                           ;main.c: 185:     INTCONbits.GIE = 1;
  1378     0F48  178B               	bsf	11,7	;volatile
  1379                           
  1380                           ;main.c: 186:     INTCONbits.T0IE = 1;
  1381     0F49  168B               	bsf	11,5	;volatile
  1382                           
  1383                           ;main.c: 187:     INTCONbits.T0IF = 0;
  1384     0F4A  110B               	bcf	11,2	;volatile
  1385                           
  1386                           ;main.c: 189:     OPTION_REGbits.T0CS = 0;
  1387     0F4B  1683               	bsf	3,5	;RP0=1, select bank1
  1388     0F4C  1303               	bcf	3,6	;RP1=0, select bank1
  1389     0F4D  1281               	bcf	1,5	;volatile
  1390                           
  1391                           ;main.c: 190:     OPTION_REGbits.PSA = 0;
  1392     0F4E  1181               	bcf	1,3	;volatile
  1393     0F4F                     l2723:
  1394                           
  1395                           ;main.c: 191:     OPTION_REGbits.PS = 0b100;
  1396     0F4F  0801               	movf	1,w	;volatile
  1397     0F50  39F8               	andlw	-8
  1398     0F51  3804               	iorlw	4
  1399     0F52  0081               	movwf	1	;volatile
  1400     0F53                     l2725:
  1401                           
  1402                           ;main.c: 192:     TMR0 = 100;
  1403     0F53  3064               	movlw	100
  1404     0F54  1283               	bcf	3,5	;RP0=0, select bank0
  1405     0F55  1303               	bcf	3,6	;RP1=0, select bank0
  1406     0F56  0081               	movwf	1	;volatile
  1407     0F57                     l2727:
  1408                           
  1409                           ;main.c: 193:     cont = 0;
  1410     0F57  01C1               	clrf	_cont
  1411     0F58  01C2               	clrf	_cont+1
  1412     0F59                     l172:
  1413     0F59  0008               	return
  1414     0F5A                     __end_of_setupTMR0:
  1415                           
  1416                           	psect	text4
  1417     0FDE                     __ptext4:	
  1418 ;; *************** function _setupPWM *****************
  1419 ;; Defined at:
  1420 ;;		line 11 in file "setupPWM.c"
  1421 ;; Parameters:    Size  Location     Type
  1422 ;;		None
  1423 ;; Auto vars:     Size  Location     Type
  1424 ;;		None
  1425 ;; Return value:  Size  Location     Type
  1426 ;;                  1    wreg      void 
  1427 ;; Registers used:
  1428 ;;		wreg, status,2, status,0
  1429 ;; Tracked objects:
  1430 ;;		On entry : 0/0
  1431 ;;		On exit  : 0/0
  1432 ;;		Unchanged: 0/0
  1433 ;; Data sizes:     COMMON   BANK0   BANK1   BANK3   BANK2
  1434 ;;      Params:         0       0       0       0       0
  1435 ;;      Locals:         0       0       0       0       0
  1436 ;;      Temps:          0       0       0       0       0
  1437 ;;      Totals:         0       0       0       0       0
  1438 ;;Total ram usage:        0 bytes
  1439 ;; Hardware stack levels used: 1
  1440 ;; Hardware stack levels required when called: 2
  1441 ;; This function calls:
  1442 ;;		Nothing
  1443 ;; This function is called by:
  1444 ;;		_main
  1445 ;; This function uses a non-reentrant model
  1446 ;;
  1447                           
  1448     0FDE                     _setupPWM:	
  1449                           ;psect for function _setupPWM
  1450                           
  1451     0FDE                     l2707:	
  1452                           ;incstack = 0
  1453                           ; Regs used in _setupPWM: [wreg+status,2+status,0]
  1454                           
  1455                           
  1456                           ;setupPWM.c: 13:     TRISCbits.TRISC2 = 1;
  1457     0FDE  1683               	bsf	3,5	;RP0=1, select bank1
  1458     0FDF  1303               	bcf	3,6	;RP1=0, select bank1
  1459     0FE0  1507               	bsf	7,2	;volatile
  1460     0FE1                     l2709:
  1461                           
  1462                           ;setupPWM.c: 14:     PR2 = 254;
  1463     0FE1  30FE               	movlw	254
  1464     0FE2  0092               	movwf	18	;volatile
  1465                           
  1466                           ;setupPWM.c: 15:     CCP1CON = 0b00001100;
  1467     0FE3  300C               	movlw	12
  1468     0FE4  1283               	bcf	3,5	;RP0=0, select bank0
  1469     0FE5  1303               	bcf	3,6	;RP1=0, select bank0
  1470     0FE6  0097               	movwf	23	;volatile
  1471     0FE7                     l2711:
  1472                           
  1473                           ;setupPWM.c: 16:     TMR2IF = 0;
  1474     0FE7  108C               	bcf	12,1	;volatile
  1475     0FE8                     l2713:
  1476                           
  1477                           ;setupPWM.c: 17:     T2CONbits.T2CKPS = 0b11;
  1478     0FE8  3003               	movlw	3
  1479     0FE9  0492               	iorwf	18,f	;volatile
  1480     0FEA                     l2715:
  1481                           
  1482                           ;setupPWM.c: 18:     TMR2ON = 1;
  1483     0FEA  1512               	bsf	18,2	;volatile
  1484     0FEB                     l370:	
  1485                           ;setupPWM.c: 19:     while(!TMR2IF);
  1486                           
  1487     0FEB  1C8C               	btfss	12,1	;volatile
  1488     0FEC  2FEE               	goto	u2211
  1489     0FED  2FEF               	goto	u2210
  1490     0FEE                     u2211:
  1491     0FEE  2FEB               	goto	l370
  1492     0FEF                     u2210:
  1493     0FEF                     l372:
  1494                           
  1495                           ;setupPWM.c: 20:     TRISCbits.TRISC2 = 0;
  1496     0FEF  1683               	bsf	3,5	;RP0=1, select bank1
  1497     0FF0  1303               	bcf	3,6	;RP1=0, select bank1
  1498     0FF1  1107               	bcf	7,2	;volatile
  1499                           
  1500                           ;setupPWM.c: 23:     TRISCbits.TRISC1 = 1;
  1501     0FF2  1487               	bsf	7,1	;volatile
  1502     0FF3                     l2717:
  1503                           
  1504                           ;setupPWM.c: 24:     CCP2CON = 0b00001100;
  1505     0FF3  300C               	movlw	12
  1506     0FF4  1283               	bcf	3,5	;RP0=0, select bank0
  1507     0FF5  1303               	bcf	3,6	;RP1=0, select bank0
  1508     0FF6  009D               	movwf	29	;volatile
  1509     0FF7                     l2719:
  1510                           
  1511                           ;setupPWM.c: 25:     TMR2IF = 0;
  1512     0FF7  108C               	bcf	12,1	;volatile
  1513     0FF8                     l373:	
  1514                           ;setupPWM.c: 26:     while(!TMR2IF);
  1515                           
  1516     0FF8  1C8C               	btfss	12,1	;volatile
  1517     0FF9  2FFB               	goto	u2221
  1518     0FFA  2FFC               	goto	u2220
  1519     0FFB                     u2221:
  1520     0FFB  2FF8               	goto	l373
  1521     0FFC                     u2220:
  1522     0FFC                     l375:
  1523                           
  1524                           ;setupPWM.c: 27:     TRISCbits.TRISC1 = 0;
  1525     0FFC  1683               	bsf	3,5	;RP0=1, select bank1
  1526     0FFD  1303               	bcf	3,6	;RP1=0, select bank1
  1527     0FFE  1087               	bcf	7,1	;volatile
  1528     0FFF                     l376:
  1529     0FFF  0008               	return
  1530     1000                     __end_of_setupPWM:
  1531                           
  1532                           	psect	text5
  1533     0590                     __ptext5:	
  1534 ;; *************** function _setupINTOSC *****************
  1535 ;; Defined at:
  1536 ;;		line 10 in file "oscilador.c"
  1537 ;; Parameters:    Size  Location     Type
  1538 ;;  IRCF            1    wreg     unsigned char 
  1539 ;; Auto vars:     Size  Location     Type
  1540 ;;  IRCF            1    0[BANK0 ] unsigned char 
  1541 ;; Return value:  Size  Location     Type
  1542 ;;                  1    wreg      void 
  1543 ;; Registers used:
  1544 ;;		wreg, status,2, status,0
  1545 ;; Tracked objects:
  1546 ;;		On entry : 0/0
  1547 ;;		On exit  : 0/0
  1548 ;;		Unchanged: 0/0
  1549 ;; Data sizes:     COMMON   BANK0   BANK1   BANK3   BANK2
  1550 ;;      Params:         0       0       0       0       0
  1551 ;;      Locals:         0       1       0       0       0
  1552 ;;      Temps:          0       0       0       0       0
  1553 ;;      Totals:         0       1       0       0       0
  1554 ;;Total ram usage:        1 bytes
  1555 ;; Hardware stack levels used: 1
  1556 ;; Hardware stack levels required when called: 2
  1557 ;; This function calls:
  1558 ;;		Nothing
  1559 ;; This function is called by:
  1560 ;;		_main
  1561 ;; This function uses a non-reentrant model
  1562 ;;
  1563                           
  1564     0590                     _setupINTOSC:	
  1565                           ;psect for function _setupINTOSC
  1566                           
  1567                           
  1568                           ;incstack = 0
  1569                           ; Regs used in _setupINTOSC: [wreg+status,2+status,0]
  1570                           ;setupINTOSC@IRCF stored from wreg
  1571     0590  1283               	bcf	3,5	;RP0=0, select bank0
  1572     0591  1303               	bcf	3,6	;RP1=0, select bank0
  1573     0592  00A0               	movwf	setupINTOSC@IRCF
  1574     0593                     l2683:
  1575                           
  1576                           ;oscilador.c: 11:     if (IRCF == 7){
  1577     0593  3007               	movlw	7
  1578     0594  0620               	xorwf	setupINTOSC@IRCF,w
  1579     0595  1D03               	btfss	3,2
  1580     0596  2D98               	goto	u2131
  1581     0597  2D99               	goto	u2130
  1582     0598                     u2131:
  1583     0598  2D9D               	goto	l330
  1584     0599                     u2130:
  1585     0599                     l2685:
  1586                           
  1587                           ;oscilador.c: 12:         OSCCONbits.IRCF = 0b111;
  1588     0599  3070               	movlw	112
  1589     059A  1683               	bsf	3,5	;RP0=1, select bank1
  1590     059B  1303               	bcf	3,6	;RP1=0, select bank1
  1591     059C  048F               	iorwf	15,f	;volatile
  1592     059D                     l330:	
  1593                           ;oscilador.c: 13:     }
  1594                           
  1595                           
  1596                           ;oscilador.c: 14:     if (IRCF == 6){
  1597     059D  3006               	movlw	6
  1598     059E  1283               	bcf	3,5	;RP0=0, select bank0
  1599     059F  0620               	xorwf	setupINTOSC@IRCF,w
  1600     05A0  1D03               	btfss	3,2
  1601     05A1  2DA3               	goto	u2141
  1602     05A2  2DA4               	goto	u2140
  1603     05A3                     u2141:
  1604     05A3  2DAA               	goto	l331
  1605     05A4                     u2140:
  1606     05A4                     l2687:
  1607                           
  1608                           ;oscilador.c: 15:         OSCCONbits.IRCF = 0b110;
  1609     05A4  1683               	bsf	3,5	;RP0=1, select bank1
  1610     05A5  1303               	bcf	3,6	;RP1=0, select bank1
  1611     05A6  080F               	movf	15,w	;volatile
  1612     05A7  398F               	andlw	-113
  1613     05A8  3860               	iorlw	96
  1614     05A9  008F               	movwf	15	;volatile
  1615     05AA                     l331:	
  1616                           ;oscilador.c: 16:     }
  1617                           
  1618                           
  1619                           ;oscilador.c: 17:     if (IRCF == 5){
  1620     05AA  3005               	movlw	5
  1621     05AB  1283               	bcf	3,5	;RP0=0, select bank0
  1622     05AC  0620               	xorwf	setupINTOSC@IRCF,w
  1623     05AD  1D03               	btfss	3,2
  1624     05AE  2DB0               	goto	u2151
  1625     05AF  2DB1               	goto	u2150
  1626     05B0                     u2151:
  1627     05B0  2DB7               	goto	l332
  1628     05B1                     u2150:
  1629     05B1                     l2689:
  1630                           
  1631                           ;oscilador.c: 18:         OSCCONbits.IRCF = 0b101;
  1632     05B1  1683               	bsf	3,5	;RP0=1, select bank1
  1633     05B2  1303               	bcf	3,6	;RP1=0, select bank1
  1634     05B3  080F               	movf	15,w	;volatile
  1635     05B4  398F               	andlw	-113
  1636     05B5  3850               	iorlw	80
  1637     05B6  008F               	movwf	15	;volatile
  1638     05B7                     l332:	
  1639                           ;oscilador.c: 19:     }
  1640                           
  1641                           
  1642                           ;oscilador.c: 20:     if (IRCF == 4){
  1643     05B7  3004               	movlw	4
  1644     05B8  1283               	bcf	3,5	;RP0=0, select bank0
  1645     05B9  0620               	xorwf	setupINTOSC@IRCF,w
  1646     05BA  1D03               	btfss	3,2
  1647     05BB  2DBD               	goto	u2161
  1648     05BC  2DBE               	goto	u2160
  1649     05BD                     u2161:
  1650     05BD  2DC4               	goto	l333
  1651     05BE                     u2160:
  1652     05BE                     l2691:
  1653                           
  1654                           ;oscilador.c: 21:         OSCCONbits.IRCF = 0b100;
  1655     05BE  1683               	bsf	3,5	;RP0=1, select bank1
  1656     05BF  1303               	bcf	3,6	;RP1=0, select bank1
  1657     05C0  080F               	movf	15,w	;volatile
  1658     05C1  398F               	andlw	-113
  1659     05C2  3840               	iorlw	64
  1660     05C3  008F               	movwf	15	;volatile
  1661     05C4                     l333:	
  1662                           ;oscilador.c: 22:     }
  1663                           
  1664                           
  1665                           ;oscilador.c: 23:     if (IRCF == 3){
  1666     05C4  3003               	movlw	3
  1667     05C5  1283               	bcf	3,5	;RP0=0, select bank0
  1668     05C6  0620               	xorwf	setupINTOSC@IRCF,w
  1669     05C7  1D03               	btfss	3,2
  1670     05C8  2DCA               	goto	u2171
  1671     05C9  2DCB               	goto	u2170
  1672     05CA                     u2171:
  1673     05CA  2DD1               	goto	l334
  1674     05CB                     u2170:
  1675     05CB                     l2693:
  1676                           
  1677                           ;oscilador.c: 24:         OSCCONbits.IRCF = 0b011;
  1678     05CB  1683               	bsf	3,5	;RP0=1, select bank1
  1679     05CC  1303               	bcf	3,6	;RP1=0, select bank1
  1680     05CD  080F               	movf	15,w	;volatile
  1681     05CE  398F               	andlw	-113
  1682     05CF  3830               	iorlw	48
  1683     05D0  008F               	movwf	15	;volatile
  1684     05D1                     l334:	
  1685                           ;oscilador.c: 25:     }
  1686                           
  1687                           
  1688                           ;oscilador.c: 26:     if (IRCF == 2){
  1689     05D1  3002               	movlw	2
  1690     05D2  1283               	bcf	3,5	;RP0=0, select bank0
  1691     05D3  0620               	xorwf	setupINTOSC@IRCF,w
  1692     05D4  1D03               	btfss	3,2
  1693     05D5  2DD7               	goto	u2181
  1694     05D6  2DD8               	goto	u2180
  1695     05D7                     u2181:
  1696     05D7  2DDE               	goto	l335
  1697     05D8                     u2180:
  1698     05D8                     l2695:
  1699                           
  1700                           ;oscilador.c: 27:         OSCCONbits.IRCF = 0b010;
  1701     05D8  1683               	bsf	3,5	;RP0=1, select bank1
  1702     05D9  1303               	bcf	3,6	;RP1=0, select bank1
  1703     05DA  080F               	movf	15,w	;volatile
  1704     05DB  398F               	andlw	-113
  1705     05DC  3820               	iorlw	32
  1706     05DD  008F               	movwf	15	;volatile
  1707     05DE                     l335:	
  1708                           ;oscilador.c: 28:     }
  1709                           
  1710                           
  1711                           ;oscilador.c: 29:     if (IRCF == 1){
  1712     05DE  1283               	bcf	3,5	;RP0=0, select bank0
  1713     05DF  0320               	decf	setupINTOSC@IRCF,w
  1714     05E0  1D03               	btfss	3,2
  1715     05E1  2DE3               	goto	u2191
  1716     05E2  2DE4               	goto	u2190
  1717     05E3                     u2191:
  1718     05E3  2DEA               	goto	l336
  1719     05E4                     u2190:
  1720     05E4                     l2697:
  1721                           
  1722                           ;oscilador.c: 30:         OSCCONbits.IRCF = 0b001;
  1723     05E4  1683               	bsf	3,5	;RP0=1, select bank1
  1724     05E5  1303               	bcf	3,6	;RP1=0, select bank1
  1725     05E6  080F               	movf	15,w	;volatile
  1726     05E7  398F               	andlw	-113
  1727     05E8  3810               	iorlw	16
  1728     05E9  008F               	movwf	15	;volatile
  1729     05EA                     l336:	
  1730                           ;oscilador.c: 31:     }
  1731                           
  1732                           
  1733                           ;oscilador.c: 32:     if (IRCF == 0){
  1734     05EA  1283               	bcf	3,5	;RP0=0, select bank0
  1735     05EB  0820               	movf	setupINTOSC@IRCF,w
  1736     05EC  1D03               	btfss	3,2
  1737     05ED  2DEF               	goto	u2201
  1738     05EE  2DF0               	goto	u2200
  1739     05EF                     u2201:
  1740     05EF  2DF4               	goto	l2701
  1741     05F0                     u2200:
  1742     05F0                     l2699:
  1743                           
  1744                           ;oscilador.c: 33:         OSCCONbits.IRCF = 0b000;
  1745     05F0  308F               	movlw	-113
  1746     05F1  1683               	bsf	3,5	;RP0=1, select bank1
  1747     05F2  1303               	bcf	3,6	;RP1=0, select bank1
  1748     05F3  058F               	andwf	15,f	;volatile
  1749     05F4                     l2701:
  1750                           
  1751                           ;oscilador.c: 36:     OSCCONbits.SCS = 1;
  1752     05F4  1683               	bsf	3,5	;RP0=1, select bank1
  1753     05F5  1303               	bcf	3,6	;RP1=0, select bank1
  1754     05F6  140F               	bsf	15,0	;volatile
  1755     05F7                     l338:
  1756     05F7  0008               	return
  1757     05F8                     __end_of_setupINTOSC:
  1758                           
  1759                           	psect	text6
  1760     0F3A                     __ptext6:	
  1761 ;; *************** function _setup *****************
  1762 ;; Defined at:
  1763 ;;		line 166 in file "main.c"
  1764 ;; Parameters:    Size  Location     Type
  1765 ;;		None
  1766 ;; Auto vars:     Size  Location     Type
  1767 ;;		None
  1768 ;; Return value:  Size  Location     Type
  1769 ;;                  1    wreg      void 
  1770 ;; Registers used:
  1771 ;;		wreg, status,2
  1772 ;; Tracked objects:
  1773 ;;		On entry : 0/0
  1774 ;;		On exit  : 0/0
  1775 ;;		Unchanged: 0/0
  1776 ;; Data sizes:     COMMON   BANK0   BANK1   BANK3   BANK2
  1777 ;;      Params:         0       0       0       0       0
  1778 ;;      Locals:         0       0       0       0       0
  1779 ;;      Temps:          0       0       0       0       0
  1780 ;;      Totals:         0       0       0       0       0
  1781 ;;Total ram usage:        0 bytes
  1782 ;; Hardware stack levels used: 1
  1783 ;; Hardware stack levels required when called: 2
  1784 ;; This function calls:
  1785 ;;		Nothing
  1786 ;; This function is called by:
  1787 ;;		_main
  1788 ;; This function uses a non-reentrant model
  1789 ;;
  1790                           
  1791     0F3A                     _setup:	
  1792                           ;psect for function _setup
  1793                           
  1794     0F3A                     l2673:	
  1795                           ;incstack = 0
  1796                           ; Regs used in _setup: [wreg+status,2]
  1797                           
  1798                           
  1799                           ;main.c: 167:     ANSELH = 0;
  1800     0F3A  1683               	bsf	3,5	;RP0=1, select bank3
  1801     0F3B  1703               	bsf	3,6	;RP1=1, select bank3
  1802     0F3C  0189               	clrf	9	;volatile
  1803                           
  1804                           ;main.c: 168:     TRISB = 0;
  1805     0F3D  1683               	bsf	3,5	;RP0=1, select bank1
  1806     0F3E  1303               	bcf	3,6	;RP1=0, select bank1
  1807     0F3F  0186               	clrf	6	;volatile
  1808     0F40                     l2675:
  1809                           
  1810                           ;main.c: 169:     TRISC = 0b10000000;
  1811     0F40  3080               	movlw	128
  1812     0F41  0087               	movwf	7	;volatile
  1813     0F42                     l2677:
  1814                           
  1815                           ;main.c: 170:     TRISD = 0;
  1816     0F42  0188               	clrf	8	;volatile
  1817     0F43                     l2679:
  1818                           
  1819                           ;main.c: 171:     PORTC = 0;
  1820     0F43  1283               	bcf	3,5	;RP0=0, select bank0
  1821     0F44  1303               	bcf	3,6	;RP1=0, select bank0
  1822     0F45  0187               	clrf	7	;volatile
  1823     0F46                     l2681:
  1824                           
  1825                           ;main.c: 172:     PORTD = 0;
  1826     0F46  0188               	clrf	8	;volatile
  1827     0F47                     l166:
  1828     0F47  0008               	return
  1829     0F48                     __end_of_setup:
  1830                           
  1831                           	psect	text7
  1832     01CC                     __ptext7:	
  1833 ;; *************** function _modomanual *****************
  1834 ;; Defined at:
  1835 ;;		line 428 in file "main.c"
  1836 ;; Parameters:    Size  Location     Type
  1837 ;;		None
  1838 ;; Auto vars:     Size  Location     Type
  1839 ;;		None
  1840 ;; Return value:  Size  Location     Type
  1841 ;;                  1    wreg      void 
  1842 ;; Registers used:
  1843 ;;		wreg, status,2, status,0, pclath, cstack
  1844 ;; Tracked objects:
  1845 ;;		On entry : 0/0
  1846 ;;		On exit  : 0/0
  1847 ;;		Unchanged: 0/0
  1848 ;; Data sizes:     COMMON   BANK0   BANK1   BANK3   BANK2
  1849 ;;      Params:         0       0       0       0       0
  1850 ;;      Locals:         0       0       0       0       0
  1851 ;;      Temps:          0       3       0       0       0
  1852 ;;      Totals:         0       3       0       0       0
  1853 ;;Total ram usage:        3 bytes
  1854 ;; Hardware stack levels used: 1
  1855 ;; Hardware stack levels required when called: 4
  1856 ;; This function calls:
  1857 ;;		_mapeo
  1858 ;; This function is called by:
  1859 ;;		_main
  1860 ;; This function uses a non-reentrant model
  1861 ;;
  1862                           
  1863     01CC                     _modomanual:	
  1864                           ;psect for function _modomanual
  1865                           
  1866     01CC                     l2825:	
  1867                           ;incstack = 0
  1868                           ; Regs used in _modomanual: [wreg+status,2+status,0+pclath+cstack]
  1869                           
  1870                           
  1871                           ;main.c: 431:     ADCON0bits.CHS = 0b0000;
  1872     01CC  30C3               	movlw	-61
  1873     01CD  1283               	bcf	3,5	;RP0=0, select bank0
  1874     01CE  1303               	bcf	3,6	;RP1=0, select bank0
  1875     01CF  059F               	andwf	31,f	;volatile
  1876     01D0                     l2827:
  1877                           
  1878                           ;main.c: 432:     _delay((unsigned long)((100)*(1000000/4000000.0)));
  1879     01D0  3007               	movlw	7
  1880     01D1  1283               	bcf	3,5	;RP0=0, select bank0
  1881     01D2  1303               	bcf	3,6	;RP1=0, select bank0
  1882     01D3  00BB               	movwf	??_modomanual
  1883     01D4                     u2557:
  1884     01D4  0BBB               	decfsz	??_modomanual,f
  1885     01D5  29D4               	goto	u2557
  1886     01D6  0000               	nop
  1887     01D7                     l2829:
  1888                           
  1889                           ;main.c: 433:     ADCON0bits.GO = 1;
  1890     01D7  1283               	bcf	3,5	;RP0=0, select bank0
  1891     01D8  1303               	bcf	3,6	;RP1=0, select bank0
  1892     01D9  149F               	bsf	31,1	;volatile
  1893     01DA                     l309:	
  1894                           ;main.c: 434:     while (ADCON0bits.GO == 1);
  1895                           
  1896     01DA  189F               	btfsc	31,1	;volatile
  1897     01DB  29DD               	goto	u2401
  1898     01DC  29DE               	goto	u2400
  1899     01DD                     u2401:
  1900     01DD  29DA               	goto	l309
  1901     01DE                     u2400:
  1902     01DE                     l311:
  1903                           
  1904                           ;main.c: 435:     ADIF = 0;
  1905     01DE  130C               	bcf	12,6	;volatile
  1906     01DF                     l2831:
  1907                           
  1908                           ;main.c: 438:     if (modo == 0){
  1909     01DF  0872               	movf	_modo,w
  1910     01E0  0473               	iorwf	_modo+1,w
  1911     01E1  1D03               	btfss	3,2
  1912     01E2  29E4               	goto	u2411
  1913     01E3  29E5               	goto	u2410
  1914     01E4                     u2411:
  1915     01E4  2A06               	goto	l2835
  1916     01E5                     u2410:
  1917     01E5                     l2833:
  1918                           
  1919                           ;main.c: 439:         v1PWM = mapeo(ADRESH, 0, 255, 63, 125);
  1920     01E5  081E               	movf	30,w	;volatile
  1921     01E6  00BB               	movwf	??_modomanual
  1922     01E7  01BC               	clrf	??_modomanual+1
  1923     01E8  083B               	movf	??_modomanual,w
  1924     01E9  00AF               	movwf	mapeo@valor
  1925     01EA  083C               	movf	??_modomanual+1,w
  1926     01EB  00B0               	movwf	mapeo@valor+1
  1927     01EC  3000               	movlw	0
  1928     01ED  00B1               	movwf	mapeo@inmin
  1929     01EE  00B2               	movwf	mapeo@inmin+1
  1930     01EF  30FF               	movlw	255
  1931     01F0  00B3               	movwf	mapeo@inmax
  1932     01F1  3000               	movlw	0
  1933     01F2  00B4               	movwf	mapeo@inmax+1
  1934     01F3  303F               	movlw	63
  1935     01F4  00B5               	movwf	mapeo@outmin
  1936     01F5  3000               	movlw	0
  1937     01F6  00B6               	movwf	mapeo@outmin+1
  1938     01F7  307D               	movlw	125
  1939     01F8  00B7               	movwf	mapeo@outmax
  1940     01F9  3000               	movlw	0
  1941     01FA  00B8               	movwf	mapeo@outmax+1
  1942     01FB  120A  118A  26EB  120A  118A  	fcall	_mapeo
  1943     0200  1283               	bcf	3,5	;RP0=0, select bank0
  1944     0201  1303               	bcf	3,6	;RP1=0, select bank0
  1945     0202  0830               	movf	?_mapeo+1,w
  1946     0203  00CC               	movwf	_v1PWM+1
  1947     0204  082F               	movf	?_mapeo,w
  1948     0205  00CB               	movwf	_v1PWM
  1949     0206                     l2835:
  1950                           
  1951                           ;main.c: 442:     vPWMl = v1PWM & 0x003;
  1952     0206  3003               	movlw	3
  1953     0207  054B               	andwf	_v1PWM,w
  1954     0208  00C7               	movwf	_vPWMl
  1955     0209  3000               	movlw	0
  1956     020A  054C               	andwf	_v1PWM+1,w
  1957     020B  00C8               	movwf	_vPWMl+1
  1958     020C                     l2837:
  1959                           
  1960                           ;main.c: 444:     vPWMh = (v1PWM & 0x3FC) >> 2;
  1961     020C  084C               	movf	_v1PWM+1,w
  1962     020D  00BC               	movwf	??_modomanual+1
  1963     020E  084B               	movf	_v1PWM,w
  1964     020F  00BB               	movwf	??_modomanual
  1965     0210  1003               	clrc
  1966     0211  0CBC               	rrf	??_modomanual+1,f
  1967     0212  0CBB               	rrf	??_modomanual,f
  1968     0213  1003               	clrc
  1969     0214  0CBC               	rrf	??_modomanual+1,f
  1970     0215  0CBB               	rrf	??_modomanual,f
  1971     0216  30FF               	movlw	255
  1972     0217  053B               	andwf	??_modomanual,w
  1973     0218  00C5               	movwf	_vPWMh
  1974     0219  3000               	movlw	0
  1975     021A  053C               	andwf	??_modomanual+1,w
  1976     021B  00C6               	movwf	_vPWMh+1
  1977     021C                     l2839:
  1978                           
  1979                           ;main.c: 446:     CCP1CONbits.DC1B = vPWMl;
  1980     021C  0847               	movf	_vPWMl,w
  1981     021D  00BB               	movwf	??_modomanual
  1982     021E  0EBB               	swapf	??_modomanual,f
  1983     021F  0817               	movf	23,w	;volatile
  1984     0220  063B               	xorwf	??_modomanual,w
  1985     0221  39CF               	andlw	-49
  1986     0222  063B               	xorwf	??_modomanual,w
  1987     0223  0097               	movwf	23	;volatile
  1988     0224                     l2841:
  1989                           
  1990                           ;main.c: 448:     CCPR1L = vPWMh;
  1991     0224  0845               	movf	_vPWMh,w
  1992     0225  0095               	movwf	21	;volatile
  1993     0226                     l2843:
  1994                           
  1995                           ;main.c: 451:     ADCON0bits.CHS = 0b0001;
  1996     0226  081F               	movf	31,w	;volatile
  1997     0227  39C3               	andlw	-61
  1998     0228  3804               	iorlw	4
  1999     0229  009F               	movwf	31	;volatile
  2000     022A                     l2845:
  2001                           
  2002                           ;main.c: 452:     _delay((unsigned long)((100)*(1000000/4000000.0)));
  2003     022A  3007               	movlw	7
  2004     022B  1283               	bcf	3,5	;RP0=0, select bank0
  2005     022C  1303               	bcf	3,6	;RP1=0, select bank0
  2006     022D  00BB               	movwf	??_modomanual
  2007     022E                     u2567:
  2008     022E  0BBB               	decfsz	??_modomanual,f
  2009     022F  2A2E               	goto	u2567
  2010     0230  0000               	nop
  2011     0231                     l2847:
  2012                           
  2013                           ;main.c: 453:     ADCON0bits.GO = 1;
  2014     0231  1283               	bcf	3,5	;RP0=0, select bank0
  2015     0232  1303               	bcf	3,6	;RP1=0, select bank0
  2016     0233  149F               	bsf	31,1	;volatile
  2017     0234                     l313:	
  2018                           ;main.c: 454:     while (ADCON0bits.GO == 1);
  2019                           
  2020     0234  189F               	btfsc	31,1	;volatile
  2021     0235  2A37               	goto	u2421
  2022     0236  2A38               	goto	u2420
  2023     0237                     u2421:
  2024     0237  2A34               	goto	l313
  2025     0238                     u2420:
  2026     0238                     l315:
  2027                           
  2028                           ;main.c: 455:     ADIF = 0;
  2029     0238  130C               	bcf	12,6	;volatile
  2030     0239                     l2849:
  2031                           
  2032                           ;main.c: 457:     if (modo == 0){
  2033     0239  0872               	movf	_modo,w
  2034     023A  0473               	iorwf	_modo+1,w
  2035     023B  1D03               	btfss	3,2
  2036     023C  2A3E               	goto	u2431
  2037     023D  2A3F               	goto	u2430
  2038     023E                     u2431:
  2039     023E  2A60               	goto	l2853
  2040     023F                     u2430:
  2041     023F                     l2851:
  2042                           
  2043                           ;main.c: 458:         v2PWM = mapeo(ADRESH, 0, 255, 63, 125);
  2044     023F  081E               	movf	30,w	;volatile
  2045     0240  00BB               	movwf	??_modomanual
  2046     0241  01BC               	clrf	??_modomanual+1
  2047     0242  083B               	movf	??_modomanual,w
  2048     0243  00AF               	movwf	mapeo@valor
  2049     0244  083C               	movf	??_modomanual+1,w
  2050     0245  00B0               	movwf	mapeo@valor+1
  2051     0246  3000               	movlw	0
  2052     0247  00B1               	movwf	mapeo@inmin
  2053     0248  00B2               	movwf	mapeo@inmin+1
  2054     0249  30FF               	movlw	255
  2055     024A  00B3               	movwf	mapeo@inmax
  2056     024B  3000               	movlw	0
  2057     024C  00B4               	movwf	mapeo@inmax+1
  2058     024D  303F               	movlw	63
  2059     024E  00B5               	movwf	mapeo@outmin
  2060     024F  3000               	movlw	0
  2061     0250  00B6               	movwf	mapeo@outmin+1
  2062     0251  307D               	movlw	125
  2063     0252  00B7               	movwf	mapeo@outmax
  2064     0253  3000               	movlw	0
  2065     0254  00B8               	movwf	mapeo@outmax+1
  2066     0255  120A  118A  26EB  120A  118A  	fcall	_mapeo
  2067     025A  1283               	bcf	3,5	;RP0=0, select bank0
  2068     025B  1303               	bcf	3,6	;RP1=0, select bank0
  2069     025C  0830               	movf	?_mapeo+1,w
  2070     025D  00CA               	movwf	_v2PWM+1
  2071     025E  082F               	movf	?_mapeo,w
  2072     025F  00C9               	movwf	_v2PWM
  2073     0260                     l2853:
  2074                           
  2075                           ;main.c: 461:     vPWMl = v2PWM & 0x003;
  2076     0260  3003               	movlw	3
  2077     0261  0549               	andwf	_v2PWM,w
  2078     0262  00C7               	movwf	_vPWMl
  2079     0263  3000               	movlw	0
  2080     0264  054A               	andwf	_v2PWM+1,w
  2081     0265  00C8               	movwf	_vPWMl+1
  2082     0266                     l2855:
  2083                           
  2084                           ;main.c: 463:     vPWMh = (v2PWM & 0x3FC) >> 2;
  2085     0266  084A               	movf	_v2PWM+1,w
  2086     0267  00BC               	movwf	??_modomanual+1
  2087     0268  0849               	movf	_v2PWM,w
  2088     0269  00BB               	movwf	??_modomanual
  2089     026A  1003               	clrc
  2090     026B  0CBC               	rrf	??_modomanual+1,f
  2091     026C  0CBB               	rrf	??_modomanual,f
  2092     026D  1003               	clrc
  2093     026E  0CBC               	rrf	??_modomanual+1,f
  2094     026F  0CBB               	rrf	??_modomanual,f
  2095     0270  30FF               	movlw	255
  2096     0271  053B               	andwf	??_modomanual,w
  2097     0272  00C5               	movwf	_vPWMh
  2098     0273  3000               	movlw	0
  2099     0274  053C               	andwf	??_modomanual+1,w
  2100     0275  00C6               	movwf	_vPWMh+1
  2101     0276                     l2857:
  2102                           
  2103                           ;main.c: 465:     CCP2CONbits.DC2B0 = vPWMl & 0x01;
  2104     0276  0847               	movf	_vPWMl,w
  2105     0277  3901               	andlw	1
  2106     0278  00BB               	movwf	??_modomanual
  2107     0279  0EBB               	swapf	??_modomanual,f
  2108     027A  081D               	movf	29,w	;volatile
  2109     027B  063B               	xorwf	??_modomanual,w
  2110     027C  39EF               	andlw	-17
  2111     027D  063B               	xorwf	??_modomanual,w
  2112     027E  009D               	movwf	29	;volatile
  2113     027F                     l2859:
  2114                           
  2115                           ;main.c: 466:     CCP2CONbits.DC2B1 = ((vPWMl & 0x02) >> 1);
  2116     027F  0848               	movf	_vPWMl+1,w
  2117     0280  00BC               	movwf	??_modomanual+1
  2118     0281  0847               	movf	_vPWMl,w
  2119     0282  00BB               	movwf	??_modomanual
  2120     0283  1003               	clrc
  2121     0284  0CBC               	rrf	??_modomanual+1,f
  2122     0285  0CBB               	rrf	??_modomanual,f
  2123     0286  083B               	movf	??_modomanual,w
  2124     0287  3901               	andlw	1
  2125     0288  00BD               	movwf	??_modomanual+2
  2126     0289  0EBD               	swapf	??_modomanual+2,f
  2127     028A  0DBD               	rlf	??_modomanual+2,f
  2128     028B  081D               	movf	29,w	;volatile
  2129     028C  063D               	xorwf	??_modomanual+2,w
  2130     028D  39DF               	andlw	-33
  2131     028E  063D               	xorwf	??_modomanual+2,w
  2132     028F  009D               	movwf	29	;volatile
  2133     0290                     l2861:
  2134                           
  2135                           ;main.c: 468:     CCPR2L = vPWMh;
  2136     0290  0845               	movf	_vPWMh,w
  2137     0291  009B               	movwf	27	;volatile
  2138     0292                     l2863:
  2139                           
  2140                           ;main.c: 472:     ADCON0bits.CHS = 0b0010;
  2141     0292  081F               	movf	31,w	;volatile
  2142     0293  39C3               	andlw	-61
  2143     0294  3808               	iorlw	8
  2144     0295  009F               	movwf	31	;volatile
  2145     0296                     l2865:
  2146                           
  2147                           ;main.c: 473:     _delay((unsigned long)((100)*(1000000/4000000.0)));
  2148     0296  3007               	movlw	7
  2149     0297  1283               	bcf	3,5	;RP0=0, select bank0
  2150     0298  1303               	bcf	3,6	;RP1=0, select bank0
  2151     0299  00BB               	movwf	??_modomanual
  2152     029A                     u2577:
  2153     029A  0BBB               	decfsz	??_modomanual,f
  2154     029B  2A9A               	goto	u2577
  2155     029C  0000               	nop
  2156     029D                     l2867:
  2157                           
  2158                           ;main.c: 474:     ADCON0bits.GO = 1;
  2159     029D  1283               	bcf	3,5	;RP0=0, select bank0
  2160     029E  1303               	bcf	3,6	;RP1=0, select bank0
  2161     029F  149F               	bsf	31,1	;volatile
  2162     02A0                     l317:	
  2163                           ;main.c: 475:     while (ADCON0bits.GO == 1);
  2164                           
  2165     02A0  189F               	btfsc	31,1	;volatile
  2166     02A1  2AA3               	goto	u2441
  2167     02A2  2AA4               	goto	u2440
  2168     02A3                     u2441:
  2169     02A3  2AA0               	goto	l317
  2170     02A4                     u2440:
  2171     02A4                     l319:
  2172                           
  2173                           ;main.c: 476:     ADIF = 0;
  2174     02A4  130C               	bcf	12,6	;volatile
  2175     02A5                     l2869:
  2176                           
  2177                           ;main.c: 477:     if (modo == 0){
  2178     02A5  0872               	movf	_modo,w
  2179     02A6  0473               	iorwf	_modo+1,w
  2180     02A7  1D03               	btfss	3,2
  2181     02A8  2AAA               	goto	u2451
  2182     02A9  2AAB               	goto	u2450
  2183     02AA                     u2451:
  2184     02AA  2ACC               	goto	l2873
  2185     02AB                     u2450:
  2186     02AB                     l2871:
  2187                           
  2188                           ;main.c: 478:         HIGHpulse0 = mapeo(ADRESH, 0, 255, 9, 26);
  2189     02AB  081E               	movf	30,w	;volatile
  2190     02AC  00BB               	movwf	??_modomanual
  2191     02AD  01BC               	clrf	??_modomanual+1
  2192     02AE  083B               	movf	??_modomanual,w
  2193     02AF  00AF               	movwf	mapeo@valor
  2194     02B0  083C               	movf	??_modomanual+1,w
  2195     02B1  00B0               	movwf	mapeo@valor+1
  2196     02B2  3000               	movlw	0
  2197     02B3  00B1               	movwf	mapeo@inmin
  2198     02B4  00B2               	movwf	mapeo@inmin+1
  2199     02B5  30FF               	movlw	255
  2200     02B6  00B3               	movwf	mapeo@inmax
  2201     02B7  3000               	movlw	0
  2202     02B8  00B4               	movwf	mapeo@inmax+1
  2203     02B9  3009               	movlw	9
  2204     02BA  00B5               	movwf	mapeo@outmin
  2205     02BB  3000               	movlw	0
  2206     02BC  00B6               	movwf	mapeo@outmin+1
  2207     02BD  301A               	movlw	26
  2208     02BE  00B7               	movwf	mapeo@outmax
  2209     02BF  3000               	movlw	0
  2210     02C0  00B8               	movwf	mapeo@outmax+1
  2211     02C1  120A  118A  26EB  120A  118A  	fcall	_mapeo
  2212     02C6  1283               	bcf	3,5	;RP0=0, select bank0
  2213     02C7  1303               	bcf	3,6	;RP1=0, select bank0
  2214     02C8  0830               	movf	?_mapeo+1,w
  2215     02C9  00F5               	movwf	_HIGHpulse0+1
  2216     02CA  082F               	movf	?_mapeo,w
  2217     02CB  00F4               	movwf	_HIGHpulse0
  2218     02CC                     l2873:
  2219                           
  2220                           ;main.c: 482:     ADCON0bits.CHS = 0b0011;
  2221     02CC  081F               	movf	31,w	;volatile
  2222     02CD  39C3               	andlw	-61
  2223     02CE  380C               	iorlw	12
  2224     02CF  009F               	movwf	31	;volatile
  2225     02D0                     l2875:
  2226                           
  2227                           ;main.c: 483:     _delay((unsigned long)((100)*(1000000/4000000.0)));
  2228     02D0  3007               	movlw	7
  2229     02D1  1283               	bcf	3,5	;RP0=0, select bank0
  2230     02D2  1303               	bcf	3,6	;RP1=0, select bank0
  2231     02D3  00BB               	movwf	??_modomanual
  2232     02D4                     u2587:
  2233     02D4  0BBB               	decfsz	??_modomanual,f
  2234     02D5  2AD4               	goto	u2587
  2235     02D6  0000               	nop
  2236     02D7                     l2877:
  2237                           
  2238                           ;main.c: 484:     ADCON0bits.GO = 1;
  2239     02D7  1283               	bcf	3,5	;RP0=0, select bank0
  2240     02D8  1303               	bcf	3,6	;RP1=0, select bank0
  2241     02D9  149F               	bsf	31,1	;volatile
  2242     02DA                     l321:	
  2243                           ;main.c: 485:     while (ADCON0bits.GO == 1);
  2244                           
  2245     02DA  189F               	btfsc	31,1	;volatile
  2246     02DB  2ADD               	goto	u2461
  2247     02DC  2ADE               	goto	u2460
  2248     02DD                     u2461:
  2249     02DD  2ADA               	goto	l321
  2250     02DE                     u2460:
  2251     02DE                     l323:
  2252                           
  2253                           ;main.c: 486:     ADIF = 0;
  2254     02DE  130C               	bcf	12,6	;volatile
  2255     02DF                     l2879:
  2256                           
  2257                           ;main.c: 487:     if (modo == 0){
  2258     02DF  0872               	movf	_modo,w
  2259     02E0  0473               	iorwf	_modo+1,w
  2260     02E1  1D03               	btfss	3,2
  2261     02E2  2AE4               	goto	u2471
  2262     02E3  2AE5               	goto	u2470
  2263     02E4                     u2471:
  2264     02E4  2B06               	goto	l2883
  2265     02E5                     u2470:
  2266     02E5                     l2881:
  2267                           
  2268                           ;main.c: 488:         HIGHpulse1 = mapeo(ADRESH, 0, 255, 9, 20);
  2269     02E5  081E               	movf	30,w	;volatile
  2270     02E6  00BB               	movwf	??_modomanual
  2271     02E7  01BC               	clrf	??_modomanual+1
  2272     02E8  083B               	movf	??_modomanual,w
  2273     02E9  00AF               	movwf	mapeo@valor
  2274     02EA  083C               	movf	??_modomanual+1,w
  2275     02EB  00B0               	movwf	mapeo@valor+1
  2276     02EC  3000               	movlw	0
  2277     02ED  00B1               	movwf	mapeo@inmin
  2278     02EE  00B2               	movwf	mapeo@inmin+1
  2279     02EF  30FF               	movlw	255
  2280     02F0  00B3               	movwf	mapeo@inmax
  2281     02F1  3000               	movlw	0
  2282     02F2  00B4               	movwf	mapeo@inmax+1
  2283     02F3  3009               	movlw	9
  2284     02F4  00B5               	movwf	mapeo@outmin
  2285     02F5  3000               	movlw	0
  2286     02F6  00B6               	movwf	mapeo@outmin+1
  2287     02F7  3014               	movlw	20
  2288     02F8  00B7               	movwf	mapeo@outmax
  2289     02F9  3000               	movlw	0
  2290     02FA  00B8               	movwf	mapeo@outmax+1
  2291     02FB  120A  118A  26EB  120A  118A  	fcall	_mapeo
  2292     0300  1283               	bcf	3,5	;RP0=0, select bank0
  2293     0301  1303               	bcf	3,6	;RP1=0, select bank0
  2294     0302  0830               	movf	?_mapeo+1,w
  2295     0303  00C4               	movwf	_HIGHpulse1+1
  2296     0304  082F               	movf	?_mapeo,w
  2297     0305  00C3               	movwf	_HIGHpulse1
  2298     0306                     l2883:
  2299                           
  2300                           ;main.c: 490:     _delay((unsigned long)((50)*(1000000/4000.0)));
  2301     0306  3011               	movlw	17
  2302     0307  1283               	bcf	3,5	;RP0=0, select bank0
  2303     0308  1303               	bcf	3,6	;RP1=0, select bank0
  2304     0309  00BC               	movwf	??_modomanual+1
  2305     030A  3039               	movlw	57
  2306     030B  00BB               	movwf	??_modomanual
  2307     030C                     u2597:
  2308     030C  0BBB               	decfsz	??_modomanual,f
  2309     030D  2B0C               	goto	u2597
  2310     030E  0BBC               	decfsz	??_modomanual+1,f
  2311     030F  2B0C               	goto	u2597
  2312     0310  2B11               	nop2
  2313     0311                     l325:
  2314     0311  0008               	return
  2315     0312                     __end_of_modomanual:
  2316                           
  2317                           	psect	text8
  2318     0F71                     __ptext8:	
  2319 ;; *************** function _initUART *****************
  2320 ;; Defined at:
  2321 ;;		line 9 in file "setupUART.c"
  2322 ;; Parameters:    Size  Location     Type
  2323 ;;		None
  2324 ;; Auto vars:     Size  Location     Type
  2325 ;;		None
  2326 ;; Return value:  Size  Location     Type
  2327 ;;                  1    wreg      void 
  2328 ;; Registers used:
  2329 ;;		wreg, status,2
  2330 ;; Tracked objects:
  2331 ;;		On entry : 0/0
  2332 ;;		On exit  : 0/0
  2333 ;;		Unchanged: 0/0
  2334 ;; Data sizes:     COMMON   BANK0   BANK1   BANK3   BANK2
  2335 ;;      Params:         0       0       0       0       0
  2336 ;;      Locals:         0       0       0       0       0
  2337 ;;      Temps:          0       0       0       0       0
  2338 ;;      Totals:         0       0       0       0       0
  2339 ;;Total ram usage:        0 bytes
  2340 ;; Hardware stack levels used: 1
  2341 ;; Hardware stack levels required when called: 2
  2342 ;; This function calls:
  2343 ;;		Nothing
  2344 ;; This function is called by:
  2345 ;;		_main
  2346 ;; This function uses a non-reentrant model
  2347 ;;
  2348                           
  2349     0F71                     _initUART:	
  2350                           ;psect for function _initUART
  2351                           
  2352     0F71                     l2737:	
  2353                           ;incstack = 0
  2354                           ; Regs used in _initUART: [wreg+status,2]
  2355                           
  2356                           
  2357                           ;setupUART.c: 11:     SPBRG = 25;
  2358     0F71  3019               	movlw	25
  2359     0F72  1683               	bsf	3,5	;RP0=1, select bank1
  2360     0F73  1303               	bcf	3,6	;RP1=0, select bank1
  2361     0F74  0099               	movwf	25	;volatile
  2362     0F75                     l2739:
  2363                           
  2364                           ;setupUART.c: 12:     SPBRGH = 0;
  2365     0F75  019A               	clrf	26	;volatile
  2366     0F76                     l2741:
  2367                           
  2368                           ;setupUART.c: 13:     BAUDCTLbits.BRG16 = 1;
  2369     0F76  1683               	bsf	3,5	;RP0=1, select bank3
  2370     0F77  1703               	bsf	3,6	;RP1=1, select bank3
  2371     0F78  1587               	bsf	7,3	;volatile
  2372     0F79                     l2743:
  2373                           
  2374                           ;setupUART.c: 14:     TXSTAbits.BRGH = 1;
  2375     0F79  1683               	bsf	3,5	;RP0=1, select bank1
  2376     0F7A  1303               	bcf	3,6	;RP1=0, select bank1
  2377     0F7B  1518               	bsf	24,2	;volatile
  2378     0F7C                     l2745:
  2379                           
  2380                           ;setupUART.c: 16:     TXSTAbits.SYNC = 0;
  2381     0F7C  1218               	bcf	24,4	;volatile
  2382     0F7D                     l2747:
  2383                           
  2384                           ;setupUART.c: 17:     RCSTAbits.SPEN = 1;
  2385     0F7D  1283               	bcf	3,5	;RP0=0, select bank0
  2386     0F7E  1303               	bcf	3,6	;RP1=0, select bank0
  2387     0F7F  1798               	bsf	24,7	;volatile
  2388     0F80                     l2749:
  2389                           
  2390                           ;setupUART.c: 19:     TXSTAbits.TXEN = 1;
  2391     0F80  1683               	bsf	3,5	;RP0=1, select bank1
  2392     0F81  1303               	bcf	3,6	;RP1=0, select bank1
  2393     0F82  1698               	bsf	24,5	;volatile
  2394     0F83                     l2751:
  2395                           
  2396                           ;setupUART.c: 20:     PIR1bits.TXIF = 0;
  2397     0F83  1283               	bcf	3,5	;RP0=0, select bank0
  2398     0F84  1303               	bcf	3,6	;RP1=0, select bank0
  2399     0F85  120C               	bcf	12,4	;volatile
  2400     0F86                     l2753:
  2401                           
  2402                           ;setupUART.c: 22:     RCSTAbits.CREN = 1;
  2403     0F86  1618               	bsf	24,4	;volatile
  2404     0F87                     l391:
  2405     0F87  0008               	return
  2406     0F88                     __end_of_initUART:
  2407                           
  2408                           	psect	text9
  2409     0026                     __ptext9:	
  2410 ;; *************** function _adafruitrec *****************
  2411 ;; Defined at:
  2412 ;;		line 276 in file "main.c"
  2413 ;; Parameters:    Size  Location     Type
  2414 ;;		None
  2415 ;; Auto vars:     Size  Location     Type
  2416 ;;		None
  2417 ;; Return value:  Size  Location     Type
  2418 ;;                  1    wreg      void 
  2419 ;; Registers used:
  2420 ;;		wreg, fsr0l, fsr0h, status,2, status,0, btemp+1, pclath, cstack
  2421 ;; Tracked objects:
  2422 ;;		On entry : 0/0
  2423 ;;		On exit  : 0/0
  2424 ;;		Unchanged: 0/0
  2425 ;; Data sizes:     COMMON   BANK0   BANK1   BANK3   BANK2
  2426 ;;      Params:         0       0       0       0       0
  2427 ;;      Locals:         0       0       0       0       0
  2428 ;;      Temps:          0       2       0       0       0
  2429 ;;      Totals:         0       2       0       0       0
  2430 ;;Total ram usage:        2 bytes
  2431 ;; Hardware stack levels used: 1
  2432 ;; Hardware stack levels required when called: 4
  2433 ;; This function calls:
  2434 ;;		_LEDmod
  2435 ;;		_LEDpos
  2436 ;;		_convint
  2437 ;;		_lecpos
  2438 ;;		_lecturanum
  2439 ;;		_mapeo
  2440 ;;		_writepos
  2441 ;; This function is called by:
  2442 ;;		_main
  2443 ;; This function uses a non-reentrant model
  2444 ;;
  2445                           
  2446     0026                     _adafruitrec:	
  2447                           ;psect for function _adafruitrec
  2448                           
  2449     0026                     l2755:	
  2450                           ;incstack = 0
  2451                           ; Regs used in _adafruitrec: [wreg-fsr0h+status,2+status,0+btemp+1+pclath+cstack]
  2452                           
  2453                           
  2454                           ;main.c: 277:     switch (RCREG){
  2455     0026  29AA               	goto	l2817
  2456     0027                     l229:	
  2457                           ;main.c: 278:         case 'a':
  2458                           
  2459                           
  2460                           ;main.c: 279:             PIR1bits.RCIF = 0;
  2461     0027  128C               	bcf	12,5	;volatile
  2462     0028                     l230:	
  2463                           ;main.c: 280:             while(!RCIF);
  2464                           
  2465     0028  1E8C               	btfss	12,5	;volatile
  2466     0029  282B               	goto	u2231
  2467     002A  282C               	goto	u2230
  2468     002B                     u2231:
  2469     002B  2828               	goto	l230
  2470     002C                     u2230:
  2471     002C                     l2757:
  2472                           
  2473                           ;main.c: 281:             if (RCREG == '1'){
  2474     002C  3031               	movlw	49
  2475     002D  061A               	xorwf	26,w	;volatile
  2476     002E  1D03               	btfss	3,2
  2477     002F  2831               	goto	u2241
  2478     0030  2832               	goto	u2240
  2479     0031                     u2241:
  2480     0031  29CB               	goto	l264
  2481     0032                     u2240:
  2482     0032                     l2759:
  2483                           
  2484                           ;main.c: 282:                 PIR1bits.RCIF = 0;
  2485     0032  128C               	bcf	12,5	;volatile
  2486     0033                     l2761:
  2487                           
  2488                           ;main.c: 283:                 if (modo < 2){
  2489     0033  0873               	movf	_modo+1,w
  2490     0034  3A80               	xorlw	128
  2491     0035  00FF               	movwf	btemp+1
  2492     0036  3080               	movlw	128
  2493     0037  027F               	subwf	btemp+1,w
  2494     0038  1D03               	skipz
  2495     0039  283C               	goto	u2255
  2496     003A  3002               	movlw	2
  2497     003B  0272               	subwf	_modo,w
  2498     003C                     u2255:
  2499     003C  1803               	skipnc
  2500     003D  283F               	goto	u2251
  2501     003E  2840               	goto	u2250
  2502     003F                     u2251:
  2503     003F  2849               	goto	l2765
  2504     0040                     u2250:
  2505     0040                     l2763:
  2506                           
  2507                           ;main.c: 284:                     modo = modo + 1;
  2508     0040  0872               	movf	_modo,w
  2509     0041  3E01               	addlw	1
  2510     0042  00F2               	movwf	_modo
  2511     0043  0873               	movf	_modo+1,w
  2512     0044  1803               	skipnc
  2513     0045  3E01               	addlw	1
  2514     0046  3E00               	addlw	0
  2515     0047  00F3               	movwf	_modo+1
  2516                           
  2517                           ;main.c: 285:                 }
  2518     0048  284B               	goto	l2767
  2519     0049                     l2765:
  2520                           
  2521                           ;main.c: 287:                     modo = 0;
  2522     0049  01F2               	clrf	_modo
  2523     004A  01F3               	clrf	_modo+1
  2524     004B                     l2767:
  2525                           
  2526                           ;main.c: 289:                 LEDmod();
  2527     004B  120A  118A  27A9  120A  118A  	fcall	_LEDmod
  2528     0050  29CB               	goto	l264
  2529     0051                     l237:	
  2530                           ;main.c: 292:         case 'b':
  2531                           
  2532                           
  2533                           ;main.c: 293:             PIR1bits.RCIF = 0;
  2534     0051  128C               	bcf	12,5	;volatile
  2535     0052                     l238:	
  2536                           ;main.c: 294:             while(!RCIF);
  2537                           
  2538     0052  1E8C               	btfss	12,5	;volatile
  2539     0053  2855               	goto	u2261
  2540     0054  2856               	goto	u2260
  2541     0055                     u2261:
  2542     0055  2852               	goto	l238
  2543     0056                     u2260:
  2544     0056                     l2769:
  2545                           
  2546                           ;main.c: 295:             if (RCREG == '1' & modo != 1){
  2547     0056  3031               	movlw	49
  2548     0057  061A               	xorwf	26,w	;volatile
  2549     0058  1D03               	btfss	3,2
  2550     0059  285B               	goto	u2271
  2551     005A  285C               	goto	u2270
  2552     005B                     u2271:
  2553     005B  2868               	goto	l2775
  2554     005C                     u2270:
  2555     005C                     l2771:
  2556     005C  0372               	decf	_modo,w
  2557     005D  0473               	iorwf	_modo+1,w
  2558     005E  1903               	btfsc	3,2
  2559     005F  2861               	goto	u2281
  2560     0060  2862               	goto	u2280
  2561     0061                     u2281:
  2562     0061  2868               	goto	l2775
  2563     0062                     u2280:
  2564     0062                     l2773:
  2565                           
  2566                           ;main.c: 296:                 writepos();
  2567     0062  120A  118A  25F8  120A  118A  	fcall	_writepos
  2568                           
  2569                           ;main.c: 297:             }
  2570     0067  29CB               	goto	l264
  2571     0068                     l2775:
  2572     0068  3031               	movlw	49
  2573     0069  061A               	xorwf	26,w	;volatile
  2574     006A  1D03               	btfss	3,2
  2575     006B  286D               	goto	u2291
  2576     006C  286E               	goto	u2290
  2577     006D                     u2291:
  2578     006D  29CB               	goto	l264
  2579     006E                     u2290:
  2580     006E                     l2777:
  2581     006E  0372               	decf	_modo,w
  2582     006F  0473               	iorwf	_modo+1,w
  2583     0070  1D03               	btfss	3,2
  2584     0071  2873               	goto	u2301
  2585     0072  2874               	goto	u2300
  2586     0073                     u2301:
  2587     0073  29CB               	goto	l264
  2588     0074                     u2300:
  2589     0074                     l2779:
  2590                           
  2591                           ;main.c: 299:                 lecpos();
  2592     0074  120A  118A  2444  120A  118A  	fcall	_lecpos
  2593     0079  29CB               	goto	l264
  2594     007A                     l244:	
  2595                           ;main.c: 302:         case 'c':
  2596                           
  2597                           
  2598                           ;main.c: 303:             PIR1bits.RCIF = 0;
  2599     007A  128C               	bcf	12,5	;volatile
  2600     007B                     l245:	
  2601                           ;main.c: 304:             while(!RCIF);
  2602                           
  2603     007B  1E8C               	btfss	12,5	;volatile
  2604     007C  287E               	goto	u2311
  2605     007D  287F               	goto	u2310
  2606     007E                     u2311:
  2607     007E  287B               	goto	l245
  2608     007F                     u2310:
  2609     007F                     l2781:
  2610                           
  2611                           ;main.c: 305:             if (RCREG == '1'){
  2612     007F  3031               	movlw	49
  2613     0080  061A               	xorwf	26,w	;volatile
  2614     0081  1D03               	btfss	3,2
  2615     0082  2884               	goto	u2321
  2616     0083  2885               	goto	u2320
  2617     0084                     u2321:
  2618     0084  288A               	goto	l2785
  2619     0085                     u2320:
  2620     0085                     l2783:
  2621                           
  2622                           ;main.c: 306:                 pos = 1;
  2623     0085  3001               	movlw	1
  2624     0086  00F0               	movwf	_pos
  2625     0087  3000               	movlw	0
  2626     0088  00F1               	movwf	_pos+1
  2627                           
  2628                           ;main.c: 307:             }
  2629     0089  28AB               	goto	l2797
  2630     008A                     l2785:
  2631     008A  3032               	movlw	50
  2632     008B  061A               	xorwf	26,w	;volatile
  2633     008C  1D03               	btfss	3,2
  2634     008D  288F               	goto	u2331
  2635     008E  2890               	goto	u2330
  2636     008F                     u2331:
  2637     008F  2895               	goto	l2789
  2638     0090                     u2330:
  2639     0090                     l2787:
  2640                           
  2641                           ;main.c: 309:                 pos = 2;
  2642     0090  3002               	movlw	2
  2643     0091  00F0               	movwf	_pos
  2644     0092  3000               	movlw	0
  2645     0093  00F1               	movwf	_pos+1
  2646                           
  2647                           ;main.c: 310:             }
  2648     0094  28AB               	goto	l2797
  2649     0095                     l2789:
  2650     0095  3033               	movlw	51
  2651     0096  061A               	xorwf	26,w	;volatile
  2652     0097  1D03               	btfss	3,2
  2653     0098  289A               	goto	u2341
  2654     0099  289B               	goto	u2340
  2655     009A                     u2341:
  2656     009A  28A0               	goto	l2793
  2657     009B                     u2340:
  2658     009B                     l2791:
  2659                           
  2660                           ;main.c: 312:                 pos = 3;
  2661     009B  3003               	movlw	3
  2662     009C  00F0               	movwf	_pos
  2663     009D  3000               	movlw	0
  2664     009E  00F1               	movwf	_pos+1
  2665                           
  2666                           ;main.c: 313:             }
  2667     009F  28AB               	goto	l2797
  2668     00A0                     l2793:
  2669     00A0  3034               	movlw	52
  2670     00A1  061A               	xorwf	26,w	;volatile
  2671     00A2  1D03               	btfss	3,2
  2672     00A3  28A5               	goto	u2351
  2673     00A4  28A6               	goto	u2350
  2674     00A5                     u2351:
  2675     00A5  28AB               	goto	l251
  2676     00A6                     u2350:
  2677     00A6                     l2795:
  2678                           
  2679                           ;main.c: 315:                 pos = 4;
  2680     00A6  3004               	movlw	4
  2681     00A7  00F0               	movwf	_pos
  2682     00A8  3000               	movlw	0
  2683     00A9  00F1               	movwf	_pos+1
  2684     00AA  28AB               	goto	l2797
  2685     00AB                     l251:
  2686     00AB                     l2797:
  2687                           
  2688                           ;main.c: 317:             LEDpos();
  2689     00AB  120A  118A  2720  120A  118A  	fcall	_LEDpos
  2690     00B0                     l2799:
  2691                           
  2692                           ;main.c: 318:             PIR1bits.RCIF = 0;
  2693     00B0  1283               	bcf	3,5	;RP0=0, select bank0
  2694     00B1  1303               	bcf	3,6	;RP1=0, select bank0
  2695     00B2  128C               	bcf	12,5	;volatile
  2696                           
  2697                           ;main.c: 319:             break;
  2698     00B3  29CB               	goto	l264
  2699     00B4                     l2801:
  2700                           
  2701                           ;main.c: 322:             if (modo == 2){
  2702     00B4  3002               	movlw	2
  2703     00B5  0672               	xorwf	_modo,w
  2704     00B6  0473               	iorwf	_modo+1,w
  2705     00B7  1D03               	btfss	3,2
  2706     00B8  28BA               	goto	u2361
  2707     00B9  28BB               	goto	u2360
  2708     00BA                     u2361:
  2709     00BA  29CB               	goto	l264
  2710     00BB                     u2360:
  2711     00BB                     l2803:
  2712                           
  2713                           ;main.c: 323:                 lecturanum();
  2714     00BB  120A  158A  2788  120A  118A  	fcall	_lecturanum
  2715                           
  2716                           ;main.c: 324:                 v1PWM = convint(cent, dec, uni);
  2717     00C0  1283               	bcf	3,5	;RP0=0, select bank0
  2718     00C1  1303               	bcf	3,6	;RP1=0, select bank0
  2719     00C2  084F               	movf	_dec,w
  2720     00C3  00A6               	movwf	convint@decenas
  2721     00C4  084D               	movf	_uni,w
  2722     00C5  00A7               	movwf	convint@unidades
  2723     00C6  084E               	movf	_cent,w
  2724     00C7  120A  118A  2659  120A  118A  	fcall	_convint
  2725     00CC  1283               	bcf	3,5	;RP0=0, select bank0
  2726     00CD  1303               	bcf	3,6	;RP1=0, select bank0
  2727     00CE  0827               	movf	?_convint+1,w
  2728     00CF  00CC               	movwf	_v1PWM+1
  2729     00D0  0826               	movf	?_convint,w
  2730     00D1  00CB               	movwf	_v1PWM
  2731                           
  2732                           ;main.c: 325:                 v1PWM = mapeo(v1PWM, 0, 180, 63, 125);
  2733     00D2  084C               	movf	_v1PWM+1,w
  2734     00D3  00B0               	movwf	mapeo@valor+1
  2735     00D4  084B               	movf	_v1PWM,w
  2736     00D5  00AF               	movwf	mapeo@valor
  2737     00D6  3000               	movlw	0
  2738     00D7  00B1               	movwf	mapeo@inmin
  2739     00D8  00B2               	movwf	mapeo@inmin+1
  2740     00D9  30B4               	movlw	180
  2741     00DA  00B3               	movwf	mapeo@inmax
  2742     00DB  3000               	movlw	0
  2743     00DC  00B4               	movwf	mapeo@inmax+1
  2744     00DD  303F               	movlw	63
  2745     00DE  00B5               	movwf	mapeo@outmin
  2746     00DF  3000               	movlw	0
  2747     00E0  00B6               	movwf	mapeo@outmin+1
  2748     00E1  307D               	movlw	125
  2749     00E2  00B7               	movwf	mapeo@outmax
  2750     00E3  3000               	movlw	0
  2751     00E4  00B8               	movwf	mapeo@outmax+1
  2752     00E5  120A  118A  26EB  120A  118A  	fcall	_mapeo
  2753     00EA  1283               	bcf	3,5	;RP0=0, select bank0
  2754     00EB  1303               	bcf	3,6	;RP1=0, select bank0
  2755     00EC  0830               	movf	?_mapeo+1,w
  2756     00ED  00CC               	movwf	_v1PWM+1
  2757     00EE  082F               	movf	?_mapeo,w
  2758     00EF  00CB               	movwf	_v1PWM
  2759     00F0  29CB               	goto	l264
  2760     00F1                     l2805:
  2761                           
  2762                           ;main.c: 329:             if (modo == 2){
  2763     00F1  3002               	movlw	2
  2764     00F2  0672               	xorwf	_modo,w
  2765     00F3  0473               	iorwf	_modo+1,w
  2766     00F4  1D03               	btfss	3,2
  2767     00F5  28F7               	goto	u2371
  2768     00F6  28F8               	goto	u2370
  2769     00F7                     u2371:
  2770     00F7  29CB               	goto	l264
  2771     00F8                     u2370:
  2772     00F8                     l2807:
  2773                           
  2774                           ;main.c: 330:                 lecturanum();
  2775     00F8  120A  158A  2788  120A  118A  	fcall	_lecturanum
  2776                           
  2777                           ;main.c: 331:                 v2PWM = convint(cent, dec, uni);
  2778     00FD  1283               	bcf	3,5	;RP0=0, select bank0
  2779     00FE  1303               	bcf	3,6	;RP1=0, select bank0
  2780     00FF  084F               	movf	_dec,w
  2781     0100  00A6               	movwf	convint@decenas
  2782     0101  084D               	movf	_uni,w
  2783     0102  00A7               	movwf	convint@unidades
  2784     0103  084E               	movf	_cent,w
  2785     0104  120A  118A  2659  120A  118A  	fcall	_convint
  2786     0109  1283               	bcf	3,5	;RP0=0, select bank0
  2787     010A  1303               	bcf	3,6	;RP1=0, select bank0
  2788     010B  0827               	movf	?_convint+1,w
  2789     010C  00CA               	movwf	_v2PWM+1
  2790     010D  0826               	movf	?_convint,w
  2791     010E  00C9               	movwf	_v2PWM
  2792                           
  2793                           ;main.c: 332:                 v2PWM = mapeo(v2PWM, 0, 180, 63, 125);
  2794     010F  084A               	movf	_v2PWM+1,w
  2795     0110  00B0               	movwf	mapeo@valor+1
  2796     0111  0849               	movf	_v2PWM,w
  2797     0112  00AF               	movwf	mapeo@valor
  2798     0113  3000               	movlw	0
  2799     0114  00B1               	movwf	mapeo@inmin
  2800     0115  00B2               	movwf	mapeo@inmin+1
  2801     0116  30B4               	movlw	180
  2802     0117  00B3               	movwf	mapeo@inmax
  2803     0118  3000               	movlw	0
  2804     0119  00B4               	movwf	mapeo@inmax+1
  2805     011A  303F               	movlw	63
  2806     011B  00B5               	movwf	mapeo@outmin
  2807     011C  3000               	movlw	0
  2808     011D  00B6               	movwf	mapeo@outmin+1
  2809     011E  307D               	movlw	125
  2810     011F  00B7               	movwf	mapeo@outmax
  2811     0120  3000               	movlw	0
  2812     0121  00B8               	movwf	mapeo@outmax+1
  2813     0122  120A  118A  26EB  120A  118A  	fcall	_mapeo
  2814     0127  1283               	bcf	3,5	;RP0=0, select bank0
  2815     0128  1303               	bcf	3,6	;RP1=0, select bank0
  2816     0129  0830               	movf	?_mapeo+1,w
  2817     012A  00CA               	movwf	_v2PWM+1
  2818     012B  082F               	movf	?_mapeo,w
  2819     012C  00C9               	movwf	_v2PWM
  2820     012D  29CB               	goto	l264
  2821     012E                     l2809:
  2822                           
  2823                           ;main.c: 336:             if (modo == 2){
  2824     012E  3002               	movlw	2
  2825     012F  0672               	xorwf	_modo,w
  2826     0130  0473               	iorwf	_modo+1,w
  2827     0131  1D03               	btfss	3,2
  2828     0132  2934               	goto	u2381
  2829     0133  2935               	goto	u2380
  2830     0134                     u2381:
  2831     0134  29CB               	goto	l264
  2832     0135                     u2380:
  2833     0135                     l2811:
  2834                           
  2835                           ;main.c: 337:                 lecturanum();
  2836     0135  120A  158A  2788  120A  118A  	fcall	_lecturanum
  2837                           
  2838                           ;main.c: 338:                 HIGHpulse0 = convint(cent, dec, uni);
  2839     013A  1283               	bcf	3,5	;RP0=0, select bank0
  2840     013B  1303               	bcf	3,6	;RP1=0, select bank0
  2841     013C  084F               	movf	_dec,w
  2842     013D  00A6               	movwf	convint@decenas
  2843     013E  084D               	movf	_uni,w
  2844     013F  00A7               	movwf	convint@unidades
  2845     0140  084E               	movf	_cent,w
  2846     0141  120A  118A  2659  120A  118A  	fcall	_convint
  2847     0146  1283               	bcf	3,5	;RP0=0, select bank0
  2848     0147  1303               	bcf	3,6	;RP1=0, select bank0
  2849     0148  0827               	movf	?_convint+1,w
  2850     0149  00F5               	movwf	_HIGHpulse0+1
  2851     014A  0826               	movf	?_convint,w
  2852     014B  00F4               	movwf	_HIGHpulse0
  2853                           
  2854                           ;main.c: 339:                 HIGHpulse0 = mapeo(HIGHpulse0, 0, 180, 9, 26);
  2855     014C  0875               	movf	_HIGHpulse0+1,w
  2856     014D  00B0               	movwf	mapeo@valor+1
  2857     014E  0874               	movf	_HIGHpulse0,w
  2858     014F  00AF               	movwf	mapeo@valor
  2859     0150  3000               	movlw	0
  2860     0151  00B1               	movwf	mapeo@inmin
  2861     0152  00B2               	movwf	mapeo@inmin+1
  2862     0153  30B4               	movlw	180
  2863     0154  00B3               	movwf	mapeo@inmax
  2864     0155  3000               	movlw	0
  2865     0156  00B4               	movwf	mapeo@inmax+1
  2866     0157  3009               	movlw	9
  2867     0158  00B5               	movwf	mapeo@outmin
  2868     0159  3000               	movlw	0
  2869     015A  00B6               	movwf	mapeo@outmin+1
  2870     015B  301A               	movlw	26
  2871     015C  00B7               	movwf	mapeo@outmax
  2872     015D  3000               	movlw	0
  2873     015E  00B8               	movwf	mapeo@outmax+1
  2874     015F  120A  118A  26EB  120A  118A  	fcall	_mapeo
  2875     0164  1283               	bcf	3,5	;RP0=0, select bank0
  2876     0165  1303               	bcf	3,6	;RP1=0, select bank0
  2877     0166  0830               	movf	?_mapeo+1,w
  2878     0167  00F5               	movwf	_HIGHpulse0+1
  2879     0168  082F               	movf	?_mapeo,w
  2880     0169  00F4               	movwf	_HIGHpulse0
  2881     016A  29CB               	goto	l264
  2882     016B                     l2813:
  2883                           
  2884                           ;main.c: 343:             if (modo == 2){
  2885     016B  3002               	movlw	2
  2886     016C  0672               	xorwf	_modo,w
  2887     016D  0473               	iorwf	_modo+1,w
  2888     016E  1D03               	btfss	3,2
  2889     016F  2971               	goto	u2391
  2890     0170  2972               	goto	u2390
  2891     0171                     u2391:
  2892     0171  29CB               	goto	l264
  2893     0172                     u2390:
  2894     0172                     l2815:
  2895                           
  2896                           ;main.c: 344:                 lecturanum();
  2897     0172  120A  158A  2788  120A  118A  	fcall	_lecturanum
  2898                           
  2899                           ;main.c: 345:                 HIGHpulse1 = convint(cent, dec, uni);
  2900     0177  1283               	bcf	3,5	;RP0=0, select bank0
  2901     0178  1303               	bcf	3,6	;RP1=0, select bank0
  2902     0179  084F               	movf	_dec,w
  2903     017A  00A6               	movwf	convint@decenas
  2904     017B  084D               	movf	_uni,w
  2905     017C  00A7               	movwf	convint@unidades
  2906     017D  084E               	movf	_cent,w
  2907     017E  120A  118A  2659  120A  118A  	fcall	_convint
  2908     0183  1283               	bcf	3,5	;RP0=0, select bank0
  2909     0184  1303               	bcf	3,6	;RP1=0, select bank0
  2910     0185  0827               	movf	?_convint+1,w
  2911     0186  00C4               	movwf	_HIGHpulse1+1
  2912     0187  0826               	movf	?_convint,w
  2913     0188  00C3               	movwf	_HIGHpulse1
  2914                           
  2915                           ;main.c: 346:                 HIGHpulse1 = mapeo(HIGHpulse1, 0, 180, 9, 20);
  2916     0189  0844               	movf	_HIGHpulse1+1,w
  2917     018A  00B0               	movwf	mapeo@valor+1
  2918     018B  0843               	movf	_HIGHpulse1,w
  2919     018C  00AF               	movwf	mapeo@valor
  2920     018D  3000               	movlw	0
  2921     018E  00B1               	movwf	mapeo@inmin
  2922     018F  00B2               	movwf	mapeo@inmin+1
  2923     0190  30B4               	movlw	180
  2924     0191  00B3               	movwf	mapeo@inmax
  2925     0192  3000               	movlw	0
  2926     0193  00B4               	movwf	mapeo@inmax+1
  2927     0194  3009               	movlw	9
  2928     0195  00B5               	movwf	mapeo@outmin
  2929     0196  3000               	movlw	0
  2930     0197  00B6               	movwf	mapeo@outmin+1
  2931     0198  3014               	movlw	20
  2932     0199  00B7               	movwf	mapeo@outmax
  2933     019A  3000               	movlw	0
  2934     019B  00B8               	movwf	mapeo@outmax+1
  2935     019C  120A  118A  26EB  120A  118A  	fcall	_mapeo
  2936     01A1  1283               	bcf	3,5	;RP0=0, select bank0
  2937     01A2  1303               	bcf	3,6	;RP1=0, select bank0
  2938     01A3  0830               	movf	?_mapeo+1,w
  2939     01A4  00C4               	movwf	_HIGHpulse1+1
  2940     01A5  082F               	movf	?_mapeo,w
  2941     01A6  00C3               	movwf	_HIGHpulse1
  2942     01A7  29CB               	goto	l264
  2943     01A8                     l263:	
  2944                           ;main.c: 349:         default:
  2945                           
  2946                           
  2947                           ;main.c: 350:             PIR1bits.RCIF = 0;
  2948     01A8  128C               	bcf	12,5	;volatile
  2949                           
  2950                           ;main.c: 351:     }
  2951     01A9  29CB               	goto	l264
  2952     01AA                     l2817:
  2953     01AA  1283               	bcf	3,5	;RP0=0, select bank0
  2954     01AB  1303               	bcf	3,6	;RP1=0, select bank0
  2955     01AC  081A               	movf	26,w	;volatile
  2956     01AD  00BB               	movwf	??_adafruitrec
  2957     01AE  01BC               	clrf	??_adafruitrec+1
  2958                           
  2959                           ; Switch on 2 bytes has been partitioned into a top level switch of size 1, and 1 sub-sw
      +                          itches
  2960                           ; Switch size 1, requested type "simple"
  2961                           ; Number of cases is 1, Range of values is 0 to 0
  2962                           ; switch strategies available:
  2963                           ; Name         Instructions Cycles
  2964                           ; simple_byte            4     3 (average)
  2965                           ; direct_byte           11     8 (fixed)
  2966                           ; jumptable            260     6 (fixed)
  2967                           ;	Chosen strategy is simple_byte
  2968     01AF  083C               	movf	??_adafruitrec+1,w
  2969     01B0  3A00               	xorlw	0	; case 0
  2970     01B1  1903               	skipnz
  2971     01B2  29B4               	goto	l3031
  2972     01B3  29A8               	goto	l263
  2973     01B4                     l3031:
  2974                           
  2975                           ; Switch size 1, requested type "simple"
  2976                           ; Number of cases is 7, Range of values is 97 to 103
  2977                           ; switch strategies available:
  2978                           ; Name         Instructions Cycles
  2979                           ; simple_byte           22    12 (average)
  2980                           ; direct_byte           32    11 (fixed)
  2981                           ; jumptable            263     9 (fixed)
  2982                           ;	Chosen strategy is simple_byte
  2983     01B4  083B               	movf	??_adafruitrec,w
  2984     01B5  3A61               	xorlw	97	; case 97
  2985     01B6  1903               	skipnz
  2986     01B7  2827               	goto	l229
  2987     01B8  3A03               	xorlw	3	; case 98
  2988     01B9  1903               	skipnz
  2989     01BA  2851               	goto	l237
  2990     01BB  3A01               	xorlw	1	; case 99
  2991     01BC  1903               	skipnz
  2992     01BD  287A               	goto	l244
  2993     01BE  3A07               	xorlw	7	; case 100
  2994     01BF  1903               	skipnz
  2995     01C0  28B4               	goto	l2801
  2996     01C1  3A01               	xorlw	1	; case 101
  2997     01C2  1903               	skipnz
  2998     01C3  28F1               	goto	l2805
  2999     01C4  3A03               	xorlw	3	; case 102
  3000     01C5  1903               	skipnz
  3001     01C6  292E               	goto	l2809
  3002     01C7  3A01               	xorlw	1	; case 103
  3003     01C8  1903               	skipnz
  3004     01C9  296B               	goto	l2813
  3005     01CA  29A8               	goto	l263
  3006     01CB                     l264:
  3007     01CB  0008               	return
  3008     01CC                     __end_of_adafruitrec:
  3009                           
  3010                           	psect	text10
  3011     05F8                     __ptext10:	
  3012 ;; *************** function _writepos *****************
  3013 ;; Defined at:
  3014 ;;		line 231 in file "main.c"
  3015 ;; Parameters:    Size  Location     Type
  3016 ;;		None
  3017 ;; Auto vars:     Size  Location     Type
  3018 ;;  addr            2    2[BANK0 ] int 
  3019 ;; Return value:  Size  Location     Type
  3020 ;;                  1    wreg      void 
  3021 ;; Registers used:
  3022 ;;		wreg, status,2, status,0, pclath, cstack
  3023 ;; Tracked objects:
  3024 ;;		On entry : 0/0
  3025 ;;		On exit  : 0/0
  3026 ;;		Unchanged: 0/0
  3027 ;; Data sizes:     COMMON   BANK0   BANK1   BANK3   BANK2
  3028 ;;      Params:         0       0       0       0       0
  3029 ;;      Locals:         0       2       0       0       0
  3030 ;;      Temps:          0       0       0       0       0
  3031 ;;      Totals:         0       2       0       0       0
  3032 ;;Total ram usage:        2 bytes
  3033 ;; Hardware stack levels used: 1
  3034 ;; Hardware stack levels required when called: 3
  3035 ;; This function calls:
  3036 ;;		_write_EEPROM
  3037 ;; This function is called by:
  3038 ;;		_main
  3039 ;;		_adafruitrec
  3040 ;; This function uses a non-reentrant model
  3041 ;;
  3042                           
  3043     05F8                     _writepos:	
  3044                           ;psect for function _writepos
  3045                           
  3046     05F8                     l2601:	
  3047                           ;incstack = 0
  3048                           ; Regs used in _writepos: [wreg+status,2+status,0+pclath+cstack]
  3049                           
  3050                           
  3051                           ;main.c: 232:     int addr;;main.c: 233:     if (pos == 1){
  3052     05F8  0370               	decf	_pos,w
  3053     05F9  0471               	iorwf	_pos+1,w
  3054     05FA  1D03               	btfss	3,2
  3055     05FB  2DFD               	goto	u2021
  3056     05FC  2DFE               	goto	u2020
  3057     05FD                     u2021:
  3058     05FD  2E03               	goto	l2605
  3059     05FE                     u2020:
  3060     05FE                     l2603:
  3061                           
  3062                           ;main.c: 234:         addr = 0;}
  3063     05FE  1283               	bcf	3,5	;RP0=0, select bank0
  3064     05FF  1303               	bcf	3,6	;RP1=0, select bank0
  3065     0600  01A2               	clrf	writepos@addr
  3066     0601  01A3               	clrf	writepos@addr+1
  3067     0602  2E2D               	goto	l2617
  3068     0603                     l2605:
  3069     0603  3002               	movlw	2
  3070     0604  0670               	xorwf	_pos,w
  3071     0605  0471               	iorwf	_pos+1,w
  3072     0606  1D03               	btfss	3,2
  3073     0607  2E09               	goto	u2031
  3074     0608  2E0A               	goto	u2030
  3075     0609                     u2031:
  3076     0609  2E11               	goto	l2609
  3077     060A                     u2030:
  3078     060A                     l2607:
  3079                           
  3080                           ;main.c: 236:         addr = 4;}
  3081     060A  3004               	movlw	4
  3082     060B  1283               	bcf	3,5	;RP0=0, select bank0
  3083     060C  1303               	bcf	3,6	;RP1=0, select bank0
  3084     060D  00A2               	movwf	writepos@addr
  3085     060E  3000               	movlw	0
  3086     060F  00A3               	movwf	writepos@addr+1
  3087     0610  2E2D               	goto	l2617
  3088     0611                     l2609:
  3089     0611  3003               	movlw	3
  3090     0612  0670               	xorwf	_pos,w
  3091     0613  0471               	iorwf	_pos+1,w
  3092     0614  1D03               	btfss	3,2
  3093     0615  2E17               	goto	u2041
  3094     0616  2E18               	goto	u2040
  3095     0617                     u2041:
  3096     0617  2E1F               	goto	l2613
  3097     0618                     u2040:
  3098     0618                     l2611:
  3099                           
  3100                           ;main.c: 238:         addr = 8;}
  3101     0618  3008               	movlw	8
  3102     0619  1283               	bcf	3,5	;RP0=0, select bank0
  3103     061A  1303               	bcf	3,6	;RP1=0, select bank0
  3104     061B  00A2               	movwf	writepos@addr
  3105     061C  3000               	movlw	0
  3106     061D  00A3               	movwf	writepos@addr+1
  3107     061E  2E2D               	goto	l2617
  3108     061F                     l2613:
  3109     061F  3004               	movlw	4
  3110     0620  0670               	xorwf	_pos,w
  3111     0621  0471               	iorwf	_pos+1,w
  3112     0622  1D03               	btfss	3,2
  3113     0623  2E25               	goto	u2051
  3114     0624  2E26               	goto	u2050
  3115     0625                     u2051:
  3116     0625  2E2D               	goto	l199
  3117     0626                     u2050:
  3118     0626                     l2615:
  3119                           
  3120                           ;main.c: 240:         addr = 12;}
  3121     0626  300C               	movlw	12
  3122     0627  1283               	bcf	3,5	;RP0=0, select bank0
  3123     0628  1303               	bcf	3,6	;RP1=0, select bank0
  3124     0629  00A2               	movwf	writepos@addr
  3125     062A  3000               	movlw	0
  3126     062B  00A3               	movwf	writepos@addr+1
  3127     062C  2E2D               	goto	l2617
  3128     062D                     l199:
  3129     062D                     l2617:
  3130                           
  3131                           ;main.c: 241:     write_EEPROM(addr, v1PWM);
  3132     062D  1283               	bcf	3,5	;RP0=0, select bank0
  3133     062E  1303               	bcf	3,6	;RP1=0, select bank0
  3134     062F  084B               	movf	_v1PWM,w
  3135     0630  00A0               	movwf	write_EEPROM@data
  3136     0631  0822               	movf	writepos@addr,w
  3137     0632  120A  158A  27BC  120A  118A  	fcall	_write_EEPROM
  3138     0637                     l2619:
  3139                           
  3140                           ;main.c: 242:     write_EEPROM((addr + 1), v2PWM);
  3141     0637  1283               	bcf	3,5	;RP0=0, select bank0
  3142     0638  1303               	bcf	3,6	;RP1=0, select bank0
  3143     0639  0849               	movf	_v2PWM,w
  3144     063A  00A0               	movwf	write_EEPROM@data
  3145     063B  0822               	movf	writepos@addr,w
  3146     063C  3E01               	addlw	1
  3147     063D  120A  158A  27BC  120A  118A  	fcall	_write_EEPROM
  3148     0642                     l2621:
  3149                           
  3150                           ;main.c: 243:     write_EEPROM((addr + 2), HIGHpulse0);
  3151     0642  0874               	movf	_HIGHpulse0,w
  3152     0643  1283               	bcf	3,5	;RP0=0, select bank0
  3153     0644  1303               	bcf	3,6	;RP1=0, select bank0
  3154     0645  00A0               	movwf	write_EEPROM@data
  3155     0646  0822               	movf	writepos@addr,w
  3156     0647  3E02               	addlw	2
  3157     0648  120A  158A  27BC  120A  118A  	fcall	_write_EEPROM
  3158     064D                     l2623:
  3159                           
  3160                           ;main.c: 244:     write_EEPROM((addr + 3), HIGHpulse1);
  3161     064D  1283               	bcf	3,5	;RP0=0, select bank0
  3162     064E  1303               	bcf	3,6	;RP1=0, select bank0
  3163     064F  0843               	movf	_HIGHpulse1,w
  3164     0650  00A0               	movwf	write_EEPROM@data
  3165     0651  0822               	movf	writepos@addr,w
  3166     0652  3E03               	addlw	3
  3167     0653  120A  158A  27BC  120A  118A  	fcall	_write_EEPROM
  3168     0658                     l203:
  3169     0658  0008               	return
  3170     0659                     __end_of_writepos:
  3171                           
  3172                           	psect	text11
  3173     0FBC                     __ptext11:	
  3174 ;; *************** function _write_EEPROM *****************
  3175 ;; Defined at:
  3176 ;;		line 208 in file "main.c"
  3177 ;; Parameters:    Size  Location     Type
  3178 ;;  address         1    wreg     unsigned char 
  3179 ;;  data            1    0[BANK0 ] unsigned char 
  3180 ;; Auto vars:     Size  Location     Type
  3181 ;;  address         1    1[BANK0 ] unsigned char 
  3182 ;; Return value:  Size  Location     Type
  3183 ;;                  1    wreg      void 
  3184 ;; Registers used:
  3185 ;;		wreg
  3186 ;; Tracked objects:
  3187 ;;		On entry : 0/0
  3188 ;;		On exit  : 0/0
  3189 ;;		Unchanged: 0/0
  3190 ;; Data sizes:     COMMON   BANK0   BANK1   BANK3   BANK2
  3191 ;;      Params:         0       1       0       0       0
  3192 ;;      Locals:         0       1       0       0       0
  3193 ;;      Temps:          0       0       0       0       0
  3194 ;;      Totals:         0       2       0       0       0
  3195 ;;Total ram usage:        2 bytes
  3196 ;; Hardware stack levels used: 1
  3197 ;; Hardware stack levels required when called: 2
  3198 ;; This function calls:
  3199 ;;		Nothing
  3200 ;; This function is called by:
  3201 ;;		_writepos
  3202 ;; This function uses a non-reentrant model
  3203 ;;
  3204                           
  3205     0FBC                     _write_EEPROM:	
  3206                           ;psect for function _write_EEPROM
  3207                           
  3208                           
  3209                           ;incstack = 0
  3210                           ; Regs used in _write_EEPROM: [wreg]
  3211                           ;write_EEPROM@address stored from wreg
  3212     0FBC  1283               	bcf	3,5	;RP0=0, select bank0
  3213     0FBD  1303               	bcf	3,6	;RP1=0, select bank0
  3214     0FBE  00A1               	movwf	write_EEPROM@address
  3215     0FBF                     l2447:
  3216     0FBF                     l184:	
  3217                           ;main.c: 209:     while(WR);
  3218                           
  3219     0FBF  1683               	bsf	3,5	;RP0=1, select bank3
  3220     0FC0  1703               	bsf	3,6	;RP1=1, select bank3
  3221     0FC1  188C               	btfsc	12,1	;volsfr
  3222     0FC2  2FC4               	goto	u1851
  3223     0FC3  2FC5               	goto	u1850
  3224     0FC4                     u1851:
  3225     0FC4  2FBF               	goto	l184
  3226     0FC5                     u1850:
  3227     0FC5                     l2449:
  3228                           
  3229                           ;main.c: 210:     EEADR = address;
  3230     0FC5  1283               	bcf	3,5	;RP0=0, select bank0
  3231     0FC6  1303               	bcf	3,6	;RP1=0, select bank0
  3232     0FC7  0821               	movf	write_EEPROM@address,w
  3233     0FC8  1283               	bcf	3,5	;RP0=0, select bank2
  3234     0FC9  1703               	bsf	3,6	;RP1=1, select bank2
  3235     0FCA  008D               	movwf	13	;volatile
  3236                           
  3237                           ;main.c: 211:     EEDAT = data;
  3238     0FCB  1283               	bcf	3,5	;RP0=0, select bank0
  3239     0FCC  1303               	bcf	3,6	;RP1=0, select bank0
  3240     0FCD  0820               	movf	write_EEPROM@data,w
  3241     0FCE  1283               	bcf	3,5	;RP0=0, select bank2
  3242     0FCF  1703               	bsf	3,6	;RP1=1, select bank2
  3243     0FD0  008C               	movwf	12	;volatile
  3244     0FD1                     l2451:
  3245                           
  3246                           ;main.c: 212:     EECON1bits.EEPGD = 0;
  3247     0FD1  1683               	bsf	3,5	;RP0=1, select bank3
  3248     0FD2  1703               	bsf	3,6	;RP1=1, select bank3
  3249     0FD3  138C               	bcf	12,7	;volsfr
  3250     0FD4                     l2453:
  3251                           
  3252                           ;main.c: 213:     EECON1bits.WREN = 1;
  3253     0FD4  150C               	bsf	12,2	;volsfr
  3254     0FD5                     l2455:
  3255                           
  3256                           ;main.c: 214:     INTCONbits.GIE = 0;
  3257     0FD5  138B               	bcf	11,7	;volatile
  3258                           
  3259                           ;main.c: 215:     EECON2 = 0x55;
  3260     0FD6  3055               	movlw	85
  3261     0FD7  008D               	movwf	13	;volsfr
  3262                           
  3263                           ;main.c: 216:     EECON2 = 0xAA;
  3264     0FD8  30AA               	movlw	170
  3265     0FD9  008D               	movwf	13	;volsfr
  3266     0FDA                     l2457:
  3267                           
  3268                           ;main.c: 217:     EECON1bits.WR = 1;
  3269     0FDA  148C               	bsf	12,1	;volsfr
  3270     0FDB                     l2459:
  3271                           
  3272                           ;main.c: 218:     EECON1bits.WREN = 0;
  3273     0FDB  110C               	bcf	12,2	;volsfr
  3274     0FDC                     l2461:
  3275                           
  3276                           ;main.c: 220:     INTCONbits.GIE = 1;
  3277     0FDC  178B               	bsf	11,7	;volatile
  3278     0FDD                     l187:
  3279     0FDD  0008               	return
  3280     0FDE                     __end_of_write_EEPROM:
  3281                           
  3282                           	psect	text12
  3283     06EB                     __ptext12:	
  3284 ;; *************** function _mapeo *****************
  3285 ;; Defined at:
  3286 ;;		line 196 in file "main.c"
  3287 ;; Parameters:    Size  Location     Type
  3288 ;;  valor           2   15[BANK0 ] int 
  3289 ;;  inmin           2   17[BANK0 ] int 
  3290 ;;  inmax           2   19[BANK0 ] int 
  3291 ;;  outmin          2   21[BANK0 ] int 
  3292 ;;  outmax          2   23[BANK0 ] int 
  3293 ;; Auto vars:     Size  Location     Type
  3294 ;;  resultado       2   25[BANK0 ] unsigned int 
  3295 ;; Return value:  Size  Location     Type
  3296 ;;                  2   15[BANK0 ] unsigned int 
  3297 ;; Registers used:
  3298 ;;		wreg, status,2, status,0, pclath, cstack
  3299 ;; Tracked objects:
  3300 ;;		On entry : 0/0
  3301 ;;		On exit  : 0/0
  3302 ;;		Unchanged: 0/0
  3303 ;; Data sizes:     COMMON   BANK0   BANK1   BANK3   BANK2
  3304 ;;      Params:         0      10       0       0       0
  3305 ;;      Locals:         0       2       0       0       0
  3306 ;;      Temps:          0       0       0       0       0
  3307 ;;      Totals:         0      12       0       0       0
  3308 ;;Total ram usage:       12 bytes
  3309 ;; Hardware stack levels used: 1
  3310 ;; Hardware stack levels required when called: 3
  3311 ;; This function calls:
  3312 ;;		___awdiv
  3313 ;;		___wmul
  3314 ;; This function is called by:
  3315 ;;		_adafruitrec
  3316 ;;		_modomanual
  3317 ;; This function uses a non-reentrant model
  3318 ;;
  3319                           
  3320     06EB                     _mapeo:	
  3321                           ;psect for function _mapeo
  3322                           
  3323     06EB                     l2649:	
  3324                           ;incstack = 0
  3325                           ; Regs used in _mapeo: [wreg+status,2+status,0+pclath+cstack]
  3326                           
  3327                           
  3328                           ;main.c: 197:     unsigned int resultado;;main.c: 198:     resultado = (((outmax-outmin)
      +                          *(valor-inmin)/(inmax)) + outmin);
  3329     06EB  1283               	bcf	3,5	;RP0=0, select bank0
  3330     06EC  1303               	bcf	3,6	;RP1=0, select bank0
  3331     06ED  0834               	movf	mapeo@inmax+1,w
  3332     06EE  00A7               	movwf	___awdiv@divisor+1
  3333     06EF  0833               	movf	mapeo@inmax,w
  3334     06F0  00A6               	movwf	___awdiv@divisor
  3335     06F1  0835               	movf	mapeo@outmin,w
  3336     06F2  0237               	subwf	mapeo@outmax,w
  3337     06F3  00A0               	movwf	___wmul@multiplier
  3338     06F4  0836               	movf	mapeo@outmin+1,w
  3339     06F5  1C03               	skipc
  3340     06F6  0A36               	incf	mapeo@outmin+1,w
  3341     06F7  0238               	subwf	mapeo@outmax+1,w
  3342     06F8  00A1               	movwf	___wmul@multiplier+1
  3343     06F9  0831               	movf	mapeo@inmin,w
  3344     06FA  022F               	subwf	mapeo@valor,w
  3345     06FB  00A2               	movwf	___wmul@multiplicand
  3346     06FC  0832               	movf	mapeo@inmin+1,w
  3347     06FD  1C03               	skipc
  3348     06FE  0A32               	incf	mapeo@inmin+1,w
  3349     06FF  0230               	subwf	mapeo@valor+1,w
  3350     0700  00A3               	movwf	___wmul@multiplicand+1
  3351     0701  120A  118A  2782  120A  118A  	fcall	___wmul
  3352     0706  1283               	bcf	3,5	;RP0=0, select bank0
  3353     0707  1303               	bcf	3,6	;RP1=0, select bank0
  3354     0708  0821               	movf	?___wmul+1,w
  3355     0709  00A9               	movwf	___awdiv@dividend+1
  3356     070A  0820               	movf	?___wmul,w
  3357     070B  00A8               	movwf	___awdiv@dividend
  3358     070C  120A  118A  2527  120A  118A  	fcall	___awdiv
  3359     0711  1283               	bcf	3,5	;RP0=0, select bank0
  3360     0712  1303               	bcf	3,6	;RP1=0, select bank0
  3361     0713  0835               	movf	mapeo@outmin,w
  3362     0714  0726               	addwf	?___awdiv,w
  3363     0715  00B9               	movwf	mapeo@resultado
  3364     0716  0836               	movf	mapeo@outmin+1,w
  3365     0717  1803               	skipnc
  3366     0718  0A36               	incf	mapeo@outmin+1,w
  3367     0719  0727               	addwf	?___awdiv+1,w
  3368     071A  00BA               	movwf	mapeo@resultado+1
  3369     071B                     l2651:
  3370                           
  3371                           ;main.c: 199:     return resultado;
  3372     071B  083A               	movf	mapeo@resultado+1,w
  3373     071C  00B0               	movwf	?_mapeo+1
  3374     071D  0839               	movf	mapeo@resultado,w
  3375     071E  00AF               	movwf	?_mapeo
  3376     071F                     l175:
  3377     071F  0008               	return
  3378     0720                     __end_of_mapeo:
  3379                           
  3380                           	psect	text13
  3381     0527                     __ptext13:	
  3382 ;; *************** function ___awdiv *****************
  3383 ;; Defined at:
  3384 ;;		line 5 in file "C:\Program Files\Microchip\xc8\v2.40\pic\sources\c90\common\awdiv.c"
  3385 ;; Parameters:    Size  Location     Type
  3386 ;;  divisor         2    6[BANK0 ] int 
  3387 ;;  dividend        2    8[BANK0 ] int 
  3388 ;; Auto vars:     Size  Location     Type
  3389 ;;  quotient        2   13[BANK0 ] int 
  3390 ;;  sign            1   12[BANK0 ] unsigned char 
  3391 ;;  counter         1   11[BANK0 ] unsigned char 
  3392 ;; Return value:  Size  Location     Type
  3393 ;;                  2    6[BANK0 ] int 
  3394 ;; Registers used:
  3395 ;;		wreg, status,2, status,0
  3396 ;; Tracked objects:
  3397 ;;		On entry : 0/0
  3398 ;;		On exit  : 0/0
  3399 ;;		Unchanged: 0/0
  3400 ;; Data sizes:     COMMON   BANK0   BANK1   BANK3   BANK2
  3401 ;;      Params:         0       4       0       0       0
  3402 ;;      Locals:         0       4       0       0       0
  3403 ;;      Temps:          0       1       0       0       0
  3404 ;;      Totals:         0       9       0       0       0
  3405 ;;Total ram usage:        9 bytes
  3406 ;; Hardware stack levels used: 1
  3407 ;; Hardware stack levels required when called: 2
  3408 ;; This function calls:
  3409 ;;		Nothing
  3410 ;; This function is called by:
  3411 ;;		_mapeo
  3412 ;; This function uses a non-reentrant model
  3413 ;;
  3414                           
  3415     0527                     ___awdiv:	
  3416                           ;psect for function ___awdiv
  3417                           
  3418     0527                     l1835:	
  3419                           ;incstack = 0
  3420                           ; Regs used in ___awdiv: [wreg+status,2+status,0]
  3421                           
  3422     0527  1283               	bcf	3,5	;RP0=0, select bank0
  3423     0528  1303               	bcf	3,6	;RP1=0, select bank0
  3424     0529  01AC               	clrf	___awdiv@sign
  3425     052A                     l1837:
  3426     052A  1FA7               	btfss	___awdiv@divisor+1,7
  3427     052B  2D2D               	goto	u1101
  3428     052C  2D2E               	goto	u1100
  3429     052D                     u1101:
  3430     052D  2D35               	goto	l1843
  3431     052E                     u1100:
  3432     052E                     l1839:
  3433     052E  09A6               	comf	___awdiv@divisor,f
  3434     052F  09A7               	comf	___awdiv@divisor+1,f
  3435     0530  0AA6               	incf	___awdiv@divisor,f
  3436     0531  1903               	skipnz
  3437     0532  0AA7               	incf	___awdiv@divisor+1,f
  3438     0533                     l1841:
  3439     0533  01AC               	clrf	___awdiv@sign
  3440     0534  0AAC               	incf	___awdiv@sign,f
  3441     0535                     l1843:
  3442     0535  1FA9               	btfss	___awdiv@dividend+1,7
  3443     0536  2D38               	goto	u1111
  3444     0537  2D39               	goto	u1110
  3445     0538                     u1111:
  3446     0538  2D42               	goto	l1849
  3447     0539                     u1110:
  3448     0539                     l1845:
  3449     0539  09A8               	comf	___awdiv@dividend,f
  3450     053A  09A9               	comf	___awdiv@dividend+1,f
  3451     053B  0AA8               	incf	___awdiv@dividend,f
  3452     053C  1903               	skipnz
  3453     053D  0AA9               	incf	___awdiv@dividend+1,f
  3454     053E                     l1847:
  3455     053E  3001               	movlw	1
  3456     053F  00AA               	movwf	??___awdiv
  3457     0540  082A               	movf	??___awdiv,w
  3458     0541  06AC               	xorwf	___awdiv@sign,f
  3459     0542                     l1849:
  3460     0542  01AD               	clrf	___awdiv@quotient
  3461     0543  01AE               	clrf	___awdiv@quotient+1
  3462     0544                     l1851:
  3463     0544  0826               	movf	___awdiv@divisor,w
  3464     0545  0427               	iorwf	___awdiv@divisor+1,w
  3465     0546  1903               	btfsc	3,2
  3466     0547  2D49               	goto	u1121
  3467     0548  2D4A               	goto	u1120
  3468     0549                     u1121:
  3469     0549  2D81               	goto	l1871
  3470     054A                     u1120:
  3471     054A                     l1853:
  3472     054A  01AB               	clrf	___awdiv@counter
  3473     054B  0AAB               	incf	___awdiv@counter,f
  3474     054C  2D58               	goto	l1859
  3475     054D                     l1855:
  3476     054D  3001               	movlw	1
  3477     054E                     u1135:
  3478     054E  1003               	clrc
  3479     054F  0DA6               	rlf	___awdiv@divisor,f
  3480     0550  0DA7               	rlf	___awdiv@divisor+1,f
  3481     0551  3EFF               	addlw	-1
  3482     0552  1D03               	skipz
  3483     0553  2D4E               	goto	u1135
  3484     0554                     l1857:
  3485     0554  3001               	movlw	1
  3486     0555  00AA               	movwf	??___awdiv
  3487     0556  082A               	movf	??___awdiv,w
  3488     0557  07AB               	addwf	___awdiv@counter,f
  3489     0558                     l1859:
  3490     0558  1FA7               	btfss	___awdiv@divisor+1,7
  3491     0559  2D5B               	goto	u1141
  3492     055A  2D5C               	goto	u1140
  3493     055B                     u1141:
  3494     055B  2D4D               	goto	l1855
  3495     055C                     u1140:
  3496     055C                     l1861:
  3497     055C  3001               	movlw	1
  3498     055D                     u1155:
  3499     055D  1003               	clrc
  3500     055E  0DAD               	rlf	___awdiv@quotient,f
  3501     055F  0DAE               	rlf	___awdiv@quotient+1,f
  3502     0560  3EFF               	addlw	-1
  3503     0561  1D03               	skipz
  3504     0562  2D5D               	goto	u1155
  3505     0563  0827               	movf	___awdiv@divisor+1,w
  3506     0564  0229               	subwf	___awdiv@dividend+1,w
  3507     0565  1D03               	skipz
  3508     0566  2D69               	goto	u1165
  3509     0567  0826               	movf	___awdiv@divisor,w
  3510     0568  0228               	subwf	___awdiv@dividend,w
  3511     0569                     u1165:
  3512     0569  1C03               	skipc
  3513     056A  2D6C               	goto	u1161
  3514     056B  2D6D               	goto	u1160
  3515     056C                     u1161:
  3516     056C  2D74               	goto	l1867
  3517     056D                     u1160:
  3518     056D                     l1863:
  3519     056D  0826               	movf	___awdiv@divisor,w
  3520     056E  02A8               	subwf	___awdiv@dividend,f
  3521     056F  0827               	movf	___awdiv@divisor+1,w
  3522     0570  1C03               	skipc
  3523     0571  03A9               	decf	___awdiv@dividend+1,f
  3524     0572  02A9               	subwf	___awdiv@dividend+1,f
  3525     0573                     l1865:
  3526     0573  142D               	bsf	___awdiv@quotient,0
  3527     0574                     l1867:
  3528     0574  3001               	movlw	1
  3529     0575                     u1175:
  3530     0575  1003               	clrc
  3531     0576  0CA7               	rrf	___awdiv@divisor+1,f
  3532     0577  0CA6               	rrf	___awdiv@divisor,f
  3533     0578  3EFF               	addlw	-1
  3534     0579  1D03               	skipz
  3535     057A  2D75               	goto	u1175
  3536     057B                     l1869:
  3537     057B  3001               	movlw	1
  3538     057C  02AB               	subwf	___awdiv@counter,f
  3539     057D  1D03               	btfss	3,2
  3540     057E  2D80               	goto	u1181
  3541     057F  2D81               	goto	u1180
  3542     0580                     u1181:
  3543     0580  2D5C               	goto	l1861
  3544     0581                     u1180:
  3545     0581                     l1871:
  3546     0581  082C               	movf	___awdiv@sign,w
  3547     0582  1903               	btfsc	3,2
  3548     0583  2D85               	goto	u1191
  3549     0584  2D86               	goto	u1190
  3550     0585                     u1191:
  3551     0585  2D8B               	goto	l1875
  3552     0586                     u1190:
  3553     0586                     l1873:
  3554     0586  09AD               	comf	___awdiv@quotient,f
  3555     0587  09AE               	comf	___awdiv@quotient+1,f
  3556     0588  0AAD               	incf	___awdiv@quotient,f
  3557     0589  1903               	skipnz
  3558     058A  0AAE               	incf	___awdiv@quotient+1,f
  3559     058B                     l1875:
  3560     058B  082E               	movf	___awdiv@quotient+1,w
  3561     058C  00A7               	movwf	?___awdiv+1
  3562     058D  082D               	movf	___awdiv@quotient,w
  3563     058E  00A6               	movwf	?___awdiv
  3564     058F                     l630:
  3565     058F  0008               	return
  3566     0590                     __end_of___awdiv:
  3567                           
  3568                           	psect	text14
  3569     0F88                     __ptext14:	
  3570 ;; *************** function _lecturanum *****************
  3571 ;; Defined at:
  3572 ;;		line 263 in file "main.c"
  3573 ;; Parameters:    Size  Location     Type
  3574 ;;		None
  3575 ;; Auto vars:     Size  Location     Type
  3576 ;;		None
  3577 ;; Return value:  Size  Location     Type
  3578 ;;                  1    wreg      void 
  3579 ;; Registers used:
  3580 ;;		wreg
  3581 ;; Tracked objects:
  3582 ;;		On entry : 0/0
  3583 ;;		On exit  : 0/0
  3584 ;;		Unchanged: 0/0
  3585 ;; Data sizes:     COMMON   BANK0   BANK1   BANK3   BANK2
  3586 ;;      Params:         0       0       0       0       0
  3587 ;;      Locals:         0       0       0       0       0
  3588 ;;      Temps:          0       0       0       0       0
  3589 ;;      Totals:         0       0       0       0       0
  3590 ;;Total ram usage:        0 bytes
  3591 ;; Hardware stack levels used: 1
  3592 ;; Hardware stack levels required when called: 2
  3593 ;; This function calls:
  3594 ;;		Nothing
  3595 ;; This function is called by:
  3596 ;;		_adafruitrec
  3597 ;; This function uses a non-reentrant model
  3598 ;;
  3599                           
  3600     0F88                     _lecturanum:	
  3601                           ;psect for function _lecturanum
  3602                           
  3603     0F88                     l2655:	
  3604                           ;incstack = 0
  3605                           ; Regs used in _lecturanum: [wreg]
  3606                           
  3607                           
  3608                           ;main.c: 264:     PIR1bits.RCIF = 0;
  3609     0F88  1283               	bcf	3,5	;RP0=0, select bank0
  3610     0F89  1303               	bcf	3,6	;RP1=0, select bank0
  3611     0F8A  128C               	bcf	12,5	;volatile
  3612     0F8B                     l216:	
  3613                           ;main.c: 265:     while(!RCIF);
  3614                           
  3615     0F8B  1E8C               	btfss	12,5	;volatile
  3616     0F8C  2F8E               	goto	u2101
  3617     0F8D  2F8F               	goto	u2100
  3618     0F8E                     u2101:
  3619     0F8E  2F8B               	goto	l216
  3620     0F8F                     u2100:
  3621     0F8F                     l2657:
  3622                           
  3623                           ;main.c: 266:     cent = RCREG;
  3624     0F8F  081A               	movf	26,w	;volatile
  3625     0F90  00CE               	movwf	_cent
  3626     0F91                     l2659:
  3627                           
  3628                           ;main.c: 267:     PIR1bits.RCIF = 0;
  3629     0F91  128C               	bcf	12,5	;volatile
  3630     0F92                     l219:	
  3631                           ;main.c: 268:     while(!RCIF);
  3632                           
  3633     0F92  1E8C               	btfss	12,5	;volatile
  3634     0F93  2F95               	goto	u2111
  3635     0F94  2F96               	goto	u2110
  3636     0F95                     u2111:
  3637     0F95  2F92               	goto	l219
  3638     0F96                     u2110:
  3639     0F96                     l2661:
  3640                           
  3641                           ;main.c: 269:     dec = RCREG;
  3642     0F96  081A               	movf	26,w	;volatile
  3643     0F97  00CF               	movwf	_dec
  3644     0F98                     l2663:
  3645                           
  3646                           ;main.c: 270:     PIR1bits.RCIF = 0;
  3647     0F98  128C               	bcf	12,5	;volatile
  3648     0F99                     l222:	
  3649                           ;main.c: 271:     while(!RCIF);
  3650                           
  3651     0F99  1E8C               	btfss	12,5	;volatile
  3652     0F9A  2F9C               	goto	u2121
  3653     0F9B  2F9D               	goto	u2120
  3654     0F9C                     u2121:
  3655     0F9C  2F99               	goto	l222
  3656     0F9D                     u2120:
  3657     0F9D                     l2665:
  3658                           
  3659                           ;main.c: 272:     uni = RCREG;
  3660     0F9D  081A               	movf	26,w	;volatile
  3661     0F9E  00CD               	movwf	_uni
  3662     0F9F                     l2667:
  3663                           
  3664                           ;main.c: 273:     PIR1bits.RCIF = 0;
  3665     0F9F  128C               	bcf	12,5	;volatile
  3666     0FA0                     l225:
  3667     0FA0  0008               	return
  3668     0FA1                     __end_of_lecturanum:
  3669                           
  3670                           	psect	text15
  3671     0444                     __ptext15:	
  3672 ;; *************** function _lecpos *****************
  3673 ;; Defined at:
  3674 ;;		line 247 in file "main.c"
  3675 ;; Parameters:    Size  Location     Type
  3676 ;;		None
  3677 ;; Auto vars:     Size  Location     Type
  3678 ;;  addr            2    3[BANK0 ] int 
  3679 ;; Return value:  Size  Location     Type
  3680 ;;                  1    wreg      void 
  3681 ;; Registers used:
  3682 ;;		wreg, status,2, status,0, pclath, cstack
  3683 ;; Tracked objects:
  3684 ;;		On entry : 0/0
  3685 ;;		On exit  : 0/0
  3686 ;;		Unchanged: 0/0
  3687 ;; Data sizes:     COMMON   BANK0   BANK1   BANK3   BANK2
  3688 ;;      Params:         0       0       0       0       0
  3689 ;;      Locals:         0       2       0       0       0
  3690 ;;      Temps:          0       2       0       0       0
  3691 ;;      Totals:         0       4       0       0       0
  3692 ;;Total ram usage:        4 bytes
  3693 ;; Hardware stack levels used: 1
  3694 ;; Hardware stack levels required when called: 3
  3695 ;; This function calls:
  3696 ;;		_read_EEPROM
  3697 ;; This function is called by:
  3698 ;;		_main
  3699 ;;		_adafruitrec
  3700 ;; This function uses a non-reentrant model
  3701 ;;
  3702                           
  3703     0444                     _lecpos:	
  3704                           ;psect for function _lecpos
  3705                           
  3706     0444                     l2625:	
  3707                           ;incstack = 0
  3708                           ; Regs used in _lecpos: [wreg+status,2+status,0+pclath+cstack]
  3709                           
  3710                           
  3711                           ;main.c: 248:     int addr;;main.c: 249:     if (pos == 1){
  3712     0444  0370               	decf	_pos,w
  3713     0445  0471               	iorwf	_pos+1,w
  3714     0446  1D03               	btfss	3,2
  3715     0447  2C49               	goto	u2061
  3716     0448  2C4A               	goto	u2060
  3717     0449                     u2061:
  3718     0449  2C4F               	goto	l2629
  3719     044A                     u2060:
  3720     044A                     l2627:
  3721                           
  3722                           ;main.c: 250:         addr = 0;}
  3723     044A  1283               	bcf	3,5	;RP0=0, select bank0
  3724     044B  1303               	bcf	3,6	;RP1=0, select bank0
  3725     044C  01A3               	clrf	lecpos@addr
  3726     044D  01A4               	clrf	lecpos@addr+1
  3727     044E  2C79               	goto	l2641
  3728     044F                     l2629:
  3729     044F  3002               	movlw	2
  3730     0450  0670               	xorwf	_pos,w
  3731     0451  0471               	iorwf	_pos+1,w
  3732     0452  1D03               	btfss	3,2
  3733     0453  2C55               	goto	u2071
  3734     0454  2C56               	goto	u2070
  3735     0455                     u2071:
  3736     0455  2C5D               	goto	l2633
  3737     0456                     u2070:
  3738     0456                     l2631:
  3739                           
  3740                           ;main.c: 252:         addr = 4;}
  3741     0456  3004               	movlw	4
  3742     0457  1283               	bcf	3,5	;RP0=0, select bank0
  3743     0458  1303               	bcf	3,6	;RP1=0, select bank0
  3744     0459  00A3               	movwf	lecpos@addr
  3745     045A  3000               	movlw	0
  3746     045B  00A4               	movwf	lecpos@addr+1
  3747     045C  2C79               	goto	l2641
  3748     045D                     l2633:
  3749     045D  3003               	movlw	3
  3750     045E  0670               	xorwf	_pos,w
  3751     045F  0471               	iorwf	_pos+1,w
  3752     0460  1D03               	btfss	3,2
  3753     0461  2C63               	goto	u2081
  3754     0462  2C64               	goto	u2080
  3755     0463                     u2081:
  3756     0463  2C6B               	goto	l2637
  3757     0464                     u2080:
  3758     0464                     l2635:
  3759                           
  3760                           ;main.c: 254:         addr = 8;}
  3761     0464  3008               	movlw	8
  3762     0465  1283               	bcf	3,5	;RP0=0, select bank0
  3763     0466  1303               	bcf	3,6	;RP1=0, select bank0
  3764     0467  00A3               	movwf	lecpos@addr
  3765     0468  3000               	movlw	0
  3766     0469  00A4               	movwf	lecpos@addr+1
  3767     046A  2C79               	goto	l2641
  3768     046B                     l2637:
  3769     046B  3004               	movlw	4
  3770     046C  0670               	xorwf	_pos,w
  3771     046D  0471               	iorwf	_pos+1,w
  3772     046E  1D03               	btfss	3,2
  3773     046F  2C71               	goto	u2091
  3774     0470  2C72               	goto	u2090
  3775     0471                     u2091:
  3776     0471  2C79               	goto	l209
  3777     0472                     u2090:
  3778     0472                     l2639:
  3779                           
  3780                           ;main.c: 256:         addr = 12;}
  3781     0472  300C               	movlw	12
  3782     0473  1283               	bcf	3,5	;RP0=0, select bank0
  3783     0474  1303               	bcf	3,6	;RP1=0, select bank0
  3784     0475  00A3               	movwf	lecpos@addr
  3785     0476  3000               	movlw	0
  3786     0477  00A4               	movwf	lecpos@addr+1
  3787     0478  2C79               	goto	l2641
  3788     0479                     l209:
  3789     0479                     l2641:
  3790                           
  3791                           ;main.c: 257:     v1PWM = read_EEPROM(addr);
  3792     0479  1283               	bcf	3,5	;RP0=0, select bank0
  3793     047A  1303               	bcf	3,6	;RP1=0, select bank0
  3794     047B  0823               	movf	lecpos@addr,w
  3795     047C  120A  158A  27A1  120A  118A  	fcall	_read_EEPROM
  3796     0481  1283               	bcf	3,5	;RP0=0, select bank0
  3797     0482  1303               	bcf	3,6	;RP1=0, select bank0
  3798     0483  00A1               	movwf	??_lecpos
  3799     0484  01A2               	clrf	??_lecpos+1
  3800     0485  0821               	movf	??_lecpos,w
  3801     0486  00CB               	movwf	_v1PWM
  3802     0487  0822               	movf	??_lecpos+1,w
  3803     0488  00CC               	movwf	_v1PWM+1
  3804     0489                     l2643:
  3805                           
  3806                           ;main.c: 258:     v2PWM = read_EEPROM((addr+1));
  3807     0489  0823               	movf	lecpos@addr,w
  3808     048A  3E01               	addlw	1
  3809     048B  120A  158A  27A1  120A  118A  	fcall	_read_EEPROM
  3810     0490  1283               	bcf	3,5	;RP0=0, select bank0
  3811     0491  1303               	bcf	3,6	;RP1=0, select bank0
  3812     0492  00A1               	movwf	??_lecpos
  3813     0493  01A2               	clrf	??_lecpos+1
  3814     0494  0821               	movf	??_lecpos,w
  3815     0495  00C9               	movwf	_v2PWM
  3816     0496  0822               	movf	??_lecpos+1,w
  3817     0497  00CA               	movwf	_v2PWM+1
  3818     0498                     l2645:
  3819                           
  3820                           ;main.c: 259:     HIGHpulse0 = read_EEPROM((addr+2));
  3821     0498  0823               	movf	lecpos@addr,w
  3822     0499  3E02               	addlw	2
  3823     049A  120A  158A  27A1  120A  118A  	fcall	_read_EEPROM
  3824     049F  1283               	bcf	3,5	;RP0=0, select bank0
  3825     04A0  1303               	bcf	3,6	;RP1=0, select bank0
  3826     04A1  00A1               	movwf	??_lecpos
  3827     04A2  01A2               	clrf	??_lecpos+1
  3828     04A3  0821               	movf	??_lecpos,w
  3829     04A4  00F4               	movwf	_HIGHpulse0
  3830     04A5  0822               	movf	??_lecpos+1,w
  3831     04A6  00F5               	movwf	_HIGHpulse0+1
  3832     04A7                     l2647:
  3833                           
  3834                           ;main.c: 260:     HIGHpulse1 = read_EEPROM((addr+3));
  3835     04A7  0823               	movf	lecpos@addr,w
  3836     04A8  3E03               	addlw	3
  3837     04A9  120A  158A  27A1  120A  118A  	fcall	_read_EEPROM
  3838     04AE  1283               	bcf	3,5	;RP0=0, select bank0
  3839     04AF  1303               	bcf	3,6	;RP1=0, select bank0
  3840     04B0  00A1               	movwf	??_lecpos
  3841     04B1  01A2               	clrf	??_lecpos+1
  3842     04B2  0821               	movf	??_lecpos,w
  3843     04B3  00C3               	movwf	_HIGHpulse1
  3844     04B4  0822               	movf	??_lecpos+1,w
  3845     04B5  00C4               	movwf	_HIGHpulse1+1
  3846     04B6                     l213:
  3847     04B6  0008               	return
  3848     04B7                     __end_of_lecpos:
  3849                           
  3850                           	psect	text16
  3851     0FA1                     __ptext16:	
  3852 ;; *************** function _read_EEPROM *****************
  3853 ;; Defined at:
  3854 ;;		line 223 in file "main.c"
  3855 ;; Parameters:    Size  Location     Type
  3856 ;;  address         1    wreg     unsigned char 
  3857 ;; Auto vars:     Size  Location     Type
  3858 ;;  address         1    0[BANK0 ] unsigned char 
  3859 ;; Return value:  Size  Location     Type
  3860 ;;                  1    wreg      unsigned char 
  3861 ;; Registers used:
  3862 ;;		wreg
  3863 ;; Tracked objects:
  3864 ;;		On entry : 0/0
  3865 ;;		On exit  : 0/0
  3866 ;;		Unchanged: 0/0
  3867 ;; Data sizes:     COMMON   BANK0   BANK1   BANK3   BANK2
  3868 ;;      Params:         0       0       0       0       0
  3869 ;;      Locals:         0       1       0       0       0
  3870 ;;      Temps:          0       0       0       0       0
  3871 ;;      Totals:         0       1       0       0       0
  3872 ;;Total ram usage:        1 bytes
  3873 ;; Hardware stack levels used: 1
  3874 ;; Hardware stack levels required when called: 2
  3875 ;; This function calls:
  3876 ;;		Nothing
  3877 ;; This function is called by:
  3878 ;;		_lecpos
  3879 ;; This function uses a non-reentrant model
  3880 ;;
  3881                           
  3882     0FA1                     _read_EEPROM:	
  3883                           ;psect for function _read_EEPROM
  3884                           
  3885                           
  3886                           ;incstack = 0
  3887                           ; Regs used in _read_EEPROM: [wreg]
  3888                           ;read_EEPROM@address stored from wreg
  3889     0FA1  1283               	bcf	3,5	;RP0=0, select bank0
  3890     0FA2  1303               	bcf	3,6	;RP1=0, select bank0
  3891     0FA3  00A0               	movwf	read_EEPROM@address
  3892     0FA4                     l2463:
  3893     0FA4                     l190:	
  3894                           ;main.c: 224:     while(WR || RD);
  3895                           
  3896     0FA4  1683               	bsf	3,5	;RP0=1, select bank3
  3897     0FA5  1703               	bsf	3,6	;RP1=1, select bank3
  3898     0FA6  188C               	btfsc	12,1	;volsfr
  3899     0FA7  2FA9               	goto	u1861
  3900     0FA8  2FAA               	goto	u1860
  3901     0FA9                     u1861:
  3902     0FA9  2FA4               	goto	l190
  3903     0FAA                     u1860:
  3904     0FAA                     l2465:
  3905     0FAA  180C               	btfsc	12,0	;volsfr
  3906     0FAB  2FAD               	goto	u1871
  3907     0FAC  2FAE               	goto	u1870
  3908     0FAD                     u1871:
  3909     0FAD  2FA4               	goto	l190
  3910     0FAE                     u1870:
  3911     0FAE                     l2467:
  3912                           
  3913                           ;main.c: 225:     EEADR = address;
  3914     0FAE  1283               	bcf	3,5	;RP0=0, select bank0
  3915     0FAF  1303               	bcf	3,6	;RP1=0, select bank0
  3916     0FB0  0820               	movf	read_EEPROM@address,w
  3917     0FB1  1283               	bcf	3,5	;RP0=0, select bank2
  3918     0FB2  1703               	bsf	3,6	;RP1=1, select bank2
  3919     0FB3  008D               	movwf	13	;volatile
  3920     0FB4                     l2469:
  3921                           
  3922                           ;main.c: 226:     EECON1bits.EEPGD = 0;
  3923     0FB4  1683               	bsf	3,5	;RP0=1, select bank3
  3924     0FB5  1703               	bsf	3,6	;RP1=1, select bank3
  3925     0FB6  138C               	bcf	12,7	;volsfr
  3926     0FB7                     l2471:
  3927                           
  3928                           ;main.c: 227:     EECON1bits.RD = 1;
  3929     0FB7  140C               	bsf	12,0	;volsfr
  3930                           
  3931                           ;main.c: 228:     return EEDAT;
  3932     0FB8  1283               	bcf	3,5	;RP0=0, select bank2
  3933     0FB9  1703               	bsf	3,6	;RP1=1, select bank2
  3934     0FBA  080C               	movf	12,w	;volatile
  3935     0FBB                     l193:
  3936     0FBB  0008               	return
  3937     0FBC                     __end_of_read_EEPROM:
  3938                           
  3939                           	psect	text17
  3940     0659                     __ptext17:	
  3941 ;; *************** function _convint *****************
  3942 ;; Defined at:
  3943 ;;		line 386 in file "main.c"
  3944 ;; Parameters:    Size  Location     Type
  3945 ;;  centenas        1    wreg     unsigned char 
  3946 ;;  decenas         1    6[BANK0 ] unsigned char 
  3947 ;;  unidades        1    7[BANK0 ] unsigned char 
  3948 ;; Auto vars:     Size  Location     Type
  3949 ;;  centenas        1   12[BANK0 ] unsigned char 
  3950 ;;  c               2   17[BANK0 ] int 
  3951 ;;  d               2   15[BANK0 ] int 
  3952 ;;  u               2   13[BANK0 ] int 
  3953 ;; Return value:  Size  Location     Type
  3954 ;;                  2    6[BANK0 ] int 
  3955 ;; Registers used:
  3956 ;;		wreg, status,2, status,0, pclath, cstack
  3957 ;; Tracked objects:
  3958 ;;		On entry : 0/0
  3959 ;;		On exit  : 0/0
  3960 ;;		Unchanged: 0/0
  3961 ;; Data sizes:     COMMON   BANK0   BANK1   BANK3   BANK2
  3962 ;;      Params:         0       2       0       0       0
  3963 ;;      Locals:         0       7       0       0       0
  3964 ;;      Temps:          0       4       0       0       0
  3965 ;;      Totals:         0      13       0       0       0
  3966 ;;Total ram usage:       13 bytes
  3967 ;; Hardware stack levels used: 1
  3968 ;; Hardware stack levels required when called: 3
  3969 ;; This function calls:
  3970 ;;		___wmul
  3971 ;;		_chartoint
  3972 ;; This function is called by:
  3973 ;;		_adafruitrec
  3974 ;; This function uses a non-reentrant model
  3975 ;;
  3976                           
  3977     0659                     _convint:	
  3978                           ;psect for function _convint
  3979                           
  3980                           
  3981                           ;incstack = 0
  3982                           ; Regs used in _convint: [wreg+status,2+status,0+pclath+cstack]
  3983                           ;convint@centenas stored from wreg
  3984     0659  1283               	bcf	3,5	;RP0=0, select bank0
  3985     065A  1303               	bcf	3,6	;RP1=0, select bank0
  3986     065B  00AC               	movwf	convint@centenas
  3987     065C                     l2669:
  3988                           
  3989                           ;main.c: 387:     int u;;main.c: 388:     int d;;main.c: 389:     int c;;main.c: 390:   
      +                            u = chartoint(unidades);
  3990     065C  0827               	movf	convint@unidades,w
  3991     065D  120A  118A  24B7  120A  118A  	fcall	_chartoint
  3992     0662  1283               	bcf	3,5	;RP0=0, select bank0
  3993     0663  1303               	bcf	3,6	;RP1=0, select bank0
  3994     0664  0821               	movf	?_chartoint+1,w
  3995     0665  00AE               	movwf	convint@u+1
  3996     0666  0820               	movf	?_chartoint,w
  3997     0667  00AD               	movwf	convint@u
  3998                           
  3999                           ;main.c: 391:     d = chartoint(decenas);
  4000     0668  0826               	movf	convint@decenas,w
  4001     0669  120A  118A  24B7  120A  118A  	fcall	_chartoint
  4002     066E  1283               	bcf	3,5	;RP0=0, select bank0
  4003     066F  1303               	bcf	3,6	;RP1=0, select bank0
  4004     0670  0821               	movf	?_chartoint+1,w
  4005     0671  00B0               	movwf	convint@d+1
  4006     0672  0820               	movf	?_chartoint,w
  4007     0673  00AF               	movwf	convint@d
  4008                           
  4009                           ;main.c: 392:     c = chartoint(centenas);
  4010     0674  082C               	movf	convint@centenas,w
  4011     0675  120A  118A  24B7  120A  118A  	fcall	_chartoint
  4012     067A  1283               	bcf	3,5	;RP0=0, select bank0
  4013     067B  1303               	bcf	3,6	;RP1=0, select bank0
  4014     067C  0821               	movf	?_chartoint+1,w
  4015     067D  00B2               	movwf	convint@c+1
  4016     067E  0820               	movf	?_chartoint,w
  4017     067F  00B1               	movwf	convint@c
  4018                           
  4019                           ;main.c: 393:     return ((c*100)+(d*10)+u);
  4020     0680  0832               	movf	convint@c+1,w
  4021     0681  00A1               	movwf	___wmul@multiplier+1
  4022     0682  0831               	movf	convint@c,w
  4023     0683  00A0               	movwf	___wmul@multiplier
  4024     0684  3064               	movlw	100
  4025     0685  00A2               	movwf	___wmul@multiplicand
  4026     0686  3000               	movlw	0
  4027     0687  00A3               	movwf	___wmul@multiplicand+1
  4028     0688  120A  118A  2782  120A  118A  	fcall	___wmul
  4029     068D  1283               	bcf	3,5	;RP0=0, select bank0
  4030     068E  1303               	bcf	3,6	;RP1=0, select bank0
  4031     068F  0820               	movf	?___wmul,w
  4032     0690  00A8               	movwf	??_convint
  4033     0691  0821               	movf	?___wmul+1,w
  4034     0692  00A9               	movwf	??_convint+1
  4035     0693  0830               	movf	convint@d+1,w
  4036     0694  00A1               	movwf	___wmul@multiplier+1
  4037     0695  082F               	movf	convint@d,w
  4038     0696  00A0               	movwf	___wmul@multiplier
  4039     0697  300A               	movlw	10
  4040     0698  00A2               	movwf	___wmul@multiplicand
  4041     0699  3000               	movlw	0
  4042     069A  00A3               	movwf	___wmul@multiplicand+1
  4043     069B  120A  118A  2782  120A  118A  	fcall	___wmul
  4044     06A0  1283               	bcf	3,5	;RP0=0, select bank0
  4045     06A1  1303               	bcf	3,6	;RP1=0, select bank0
  4046     06A2  0820               	movf	?___wmul,w
  4047     06A3  0728               	addwf	??_convint,w
  4048     06A4  00AA               	movwf	??_convint+2
  4049     06A5  0821               	movf	?___wmul+1,w
  4050     06A6  1803               	skipnc
  4051     06A7  0A21               	incf	?___wmul+1,w
  4052     06A8  0729               	addwf	??_convint+1,w
  4053     06A9  00AB               	movwf	??_convint+3
  4054     06AA  082D               	movf	convint@u,w
  4055     06AB  072A               	addwf	??_convint+2,w
  4056     06AC  00A6               	movwf	?_convint
  4057     06AD  082E               	movf	convint@u+1,w
  4058     06AE  1803               	skipnc
  4059     06AF  0A2E               	incf	convint@u+1,w
  4060     06B0  072B               	addwf	??_convint+3,w
  4061     06B1  00A7               	movwf	?_convint+1
  4062     06B2                     l284:
  4063     06B2  0008               	return
  4064     06B3                     __end_of_convint:
  4065                           
  4066                           	psect	text18
  4067     04B7                     __ptext18:	
  4068 ;; *************** function _chartoint *****************
  4069 ;; Defined at:
  4070 ;;		line 396 in file "main.c"
  4071 ;; Parameters:    Size  Location     Type
  4072 ;;  num             1    wreg     unsigned char 
  4073 ;; Auto vars:     Size  Location     Type
  4074 ;;  num             1    2[BANK0 ] unsigned char 
  4075 ;; Return value:  Size  Location     Type
  4076 ;;                  2    0[BANK0 ] int 
  4077 ;; Registers used:
  4078 ;;		wreg, status,2, status,0
  4079 ;; Tracked objects:
  4080 ;;		On entry : 0/0
  4081 ;;		On exit  : 0/0
  4082 ;;		Unchanged: 0/0
  4083 ;; Data sizes:     COMMON   BANK0   BANK1   BANK3   BANK2
  4084 ;;      Params:         0       2       0       0       0
  4085 ;;      Locals:         0       1       0       0       0
  4086 ;;      Temps:          0       0       0       0       0
  4087 ;;      Totals:         0       3       0       0       0
  4088 ;;Total ram usage:        3 bytes
  4089 ;; Hardware stack levels used: 1
  4090 ;; Hardware stack levels required when called: 2
  4091 ;; This function calls:
  4092 ;;		Nothing
  4093 ;; This function is called by:
  4094 ;;		_convint
  4095 ;; This function uses a non-reentrant model
  4096 ;;
  4097                           
  4098     04B7                     _chartoint:	
  4099                           ;psect for function _chartoint
  4100                           
  4101                           
  4102                           ;incstack = 0
  4103                           ; Regs used in _chartoint: [wreg+status,2+status,0]
  4104                           ;chartoint@num stored from wreg
  4105     04B7  1283               	bcf	3,5	;RP0=0, select bank0
  4106     04B8  1303               	bcf	3,6	;RP1=0, select bank0
  4107     04B9  00A2               	movwf	chartoint@num
  4108     04BA                     l2475:
  4109                           
  4110                           ;main.c: 397:     if (num == '0'){
  4111     04BA  3030               	movlw	48
  4112     04BB  0622               	xorwf	chartoint@num,w
  4113     04BC  1D03               	btfss	3,2
  4114     04BD  2CBF               	goto	u1881
  4115     04BE  2CC0               	goto	u1880
  4116     04BF                     u1881:
  4117     04BF  2CC3               	goto	l2483
  4118     04C0                     u1880:
  4119     04C0                     l2477:
  4120                           
  4121                           ;main.c: 398:         return 0;
  4122     04C0  01A0               	clrf	?_chartoint
  4123     04C1  01A1               	clrf	?_chartoint+1
  4124     04C2  2D26               	goto	l288
  4125     04C3                     l2483:
  4126     04C3  3031               	movlw	49
  4127     04C4  0622               	xorwf	chartoint@num,w
  4128     04C5  1D03               	btfss	3,2
  4129     04C6  2CC8               	goto	u1891
  4130     04C7  2CC9               	goto	u1890
  4131     04C8                     u1891:
  4132     04C8  2CCE               	goto	l2491
  4133     04C9                     u1890:
  4134     04C9                     l2485:
  4135                           
  4136                           ;main.c: 401:         return 1;
  4137     04C9  3001               	movlw	1
  4138     04CA  00A0               	movwf	?_chartoint
  4139     04CB  3000               	movlw	0
  4140     04CC  00A1               	movwf	?_chartoint+1
  4141     04CD  2D26               	goto	l288
  4142     04CE                     l2491:
  4143     04CE  3032               	movlw	50
  4144     04CF  0622               	xorwf	chartoint@num,w
  4145     04D0  1D03               	btfss	3,2
  4146     04D1  2CD3               	goto	u1901
  4147     04D2  2CD4               	goto	u1900
  4148     04D3                     u1901:
  4149     04D3  2CD9               	goto	l2499
  4150     04D4                     u1900:
  4151     04D4                     l2493:
  4152                           
  4153                           ;main.c: 404:         return 2;
  4154     04D4  3002               	movlw	2
  4155     04D5  00A0               	movwf	?_chartoint
  4156     04D6  3000               	movlw	0
  4157     04D7  00A1               	movwf	?_chartoint+1
  4158     04D8  2D26               	goto	l288
  4159     04D9                     l2499:
  4160     04D9  3033               	movlw	51
  4161     04DA  0622               	xorwf	chartoint@num,w
  4162     04DB  1D03               	btfss	3,2
  4163     04DC  2CDE               	goto	u1911
  4164     04DD  2CDF               	goto	u1910
  4165     04DE                     u1911:
  4166     04DE  2CE4               	goto	l2507
  4167     04DF                     u1910:
  4168     04DF                     l2501:
  4169                           
  4170                           ;main.c: 407:         return 3;
  4171     04DF  3003               	movlw	3
  4172     04E0  00A0               	movwf	?_chartoint
  4173     04E1  3000               	movlw	0
  4174     04E2  00A1               	movwf	?_chartoint+1
  4175     04E3  2D26               	goto	l288
  4176     04E4                     l2507:
  4177     04E4  3034               	movlw	52
  4178     04E5  0622               	xorwf	chartoint@num,w
  4179     04E6  1D03               	btfss	3,2
  4180     04E7  2CE9               	goto	u1921
  4181     04E8  2CEA               	goto	u1920
  4182     04E9                     u1921:
  4183     04E9  2CEF               	goto	l2515
  4184     04EA                     u1920:
  4185     04EA                     l2509:
  4186                           
  4187                           ;main.c: 410:         return 4;
  4188     04EA  3004               	movlw	4
  4189     04EB  00A0               	movwf	?_chartoint
  4190     04EC  3000               	movlw	0
  4191     04ED  00A1               	movwf	?_chartoint+1
  4192     04EE  2D26               	goto	l288
  4193     04EF                     l2515:
  4194     04EF  3035               	movlw	53
  4195     04F0  0622               	xorwf	chartoint@num,w
  4196     04F1  1D03               	btfss	3,2
  4197     04F2  2CF4               	goto	u1931
  4198     04F3  2CF5               	goto	u1930
  4199     04F4                     u1931:
  4200     04F4  2CFA               	goto	l2523
  4201     04F5                     u1930:
  4202     04F5                     l2517:
  4203                           
  4204                           ;main.c: 413:         return 5;
  4205     04F5  3005               	movlw	5
  4206     04F6  00A0               	movwf	?_chartoint
  4207     04F7  3000               	movlw	0
  4208     04F8  00A1               	movwf	?_chartoint+1
  4209     04F9  2D26               	goto	l288
  4210     04FA                     l2523:
  4211     04FA  3036               	movlw	54
  4212     04FB  0622               	xorwf	chartoint@num,w
  4213     04FC  1D03               	btfss	3,2
  4214     04FD  2CFF               	goto	u1941
  4215     04FE  2D00               	goto	u1940
  4216     04FF                     u1941:
  4217     04FF  2D05               	goto	l2531
  4218     0500                     u1940:
  4219     0500                     l2525:
  4220                           
  4221                           ;main.c: 416:         return 6;
  4222     0500  3006               	movlw	6
  4223     0501  00A0               	movwf	?_chartoint
  4224     0502  3000               	movlw	0
  4225     0503  00A1               	movwf	?_chartoint+1
  4226     0504  2D26               	goto	l288
  4227     0505                     l2531:
  4228     0505  3037               	movlw	55
  4229     0506  0622               	xorwf	chartoint@num,w
  4230     0507  1D03               	btfss	3,2
  4231     0508  2D0A               	goto	u1951
  4232     0509  2D0B               	goto	u1950
  4233     050A                     u1951:
  4234     050A  2D10               	goto	l2539
  4235     050B                     u1950:
  4236     050B                     l2533:
  4237                           
  4238                           ;main.c: 419:         return 7;
  4239     050B  3007               	movlw	7
  4240     050C  00A0               	movwf	?_chartoint
  4241     050D  3000               	movlw	0
  4242     050E  00A1               	movwf	?_chartoint+1
  4243     050F  2D26               	goto	l288
  4244     0510                     l2539:
  4245     0510  3038               	movlw	56
  4246     0511  0622               	xorwf	chartoint@num,w
  4247     0512  1D03               	btfss	3,2
  4248     0513  2D15               	goto	u1961
  4249     0514  2D16               	goto	u1960
  4250     0515                     u1961:
  4251     0515  2D1B               	goto	l2547
  4252     0516                     u1960:
  4253     0516                     l2541:
  4254                           
  4255                           ;main.c: 422:         return 8;
  4256     0516  3008               	movlw	8
  4257     0517  00A0               	movwf	?_chartoint
  4258     0518  3000               	movlw	0
  4259     0519  00A1               	movwf	?_chartoint+1
  4260     051A  2D26               	goto	l288
  4261     051B                     l2547:
  4262     051B  3039               	movlw	57
  4263     051C  0622               	xorwf	chartoint@num,w
  4264     051D  1D03               	btfss	3,2
  4265     051E  2D20               	goto	u1971
  4266     051F  2D21               	goto	u1970
  4267     0520                     u1971:
  4268     0520  2D26               	goto	l301
  4269     0521                     u1970:
  4270     0521                     l2549:
  4271                           
  4272                           ;main.c: 425:         return 9;
  4273     0521  3009               	movlw	9
  4274     0522  00A0               	movwf	?_chartoint
  4275     0523  3000               	movlw	0
  4276     0524  00A1               	movwf	?_chartoint+1
  4277     0525  2D26               	goto	l288
  4278     0526                     l301:
  4279     0526                     l288:
  4280     0526  0008               	return
  4281     0527                     __end_of_chartoint:
  4282                           
  4283                           	psect	text19
  4284     0782                     __ptext19:	
  4285 ;; *************** function ___wmul *****************
  4286 ;; Defined at:
  4287 ;;		line 15 in file "C:\Program Files\Microchip\xc8\v2.40\pic\sources\c90\common\Umul16.c"
  4288 ;; Parameters:    Size  Location     Type
  4289 ;;  multiplier      2    0[BANK0 ] unsigned int 
  4290 ;;  multiplicand    2    2[BANK0 ] unsigned int 
  4291 ;; Auto vars:     Size  Location     Type
  4292 ;;  product         2    4[BANK0 ] unsigned int 
  4293 ;; Return value:  Size  Location     Type
  4294 ;;                  2    0[BANK0 ] unsigned int 
  4295 ;; Registers used:
  4296 ;;		wreg, status,2, status,0
  4297 ;; Tracked objects:
  4298 ;;		On entry : 0/0
  4299 ;;		On exit  : 0/0
  4300 ;;		Unchanged: 0/0
  4301 ;; Data sizes:     COMMON   BANK0   BANK1   BANK3   BANK2
  4302 ;;      Params:         0       4       0       0       0
  4303 ;;      Locals:         0       2       0       0       0
  4304 ;;      Temps:          0       0       0       0       0
  4305 ;;      Totals:         0       6       0       0       0
  4306 ;;Total ram usage:        6 bytes
  4307 ;; Hardware stack levels used: 1
  4308 ;; Hardware stack levels required when called: 2
  4309 ;; This function calls:
  4310 ;;		Nothing
  4311 ;; This function is called by:
  4312 ;;		_mapeo
  4313 ;;		_convint
  4314 ;; This function uses a non-reentrant model
  4315 ;;
  4316                           
  4317     0782                     ___wmul:	
  4318                           ;psect for function ___wmul
  4319                           
  4320     0782                     l2553:	
  4321                           ;incstack = 0
  4322                           ; Regs used in ___wmul: [wreg+status,2+status,0]
  4323                           
  4324     0782  1283               	bcf	3,5	;RP0=0, select bank0
  4325     0783  1303               	bcf	3,6	;RP1=0, select bank0
  4326     0784  01A4               	clrf	___wmul@product
  4327     0785  01A5               	clrf	___wmul@product+1
  4328     0786                     l2555:
  4329     0786  1C20               	btfss	___wmul@multiplier,0
  4330     0787  2F89               	goto	u1981
  4331     0788  2F8A               	goto	u1980
  4332     0789                     u1981:
  4333     0789  2F90               	goto	l477
  4334     078A                     u1980:
  4335     078A                     l2557:
  4336     078A  0822               	movf	___wmul@multiplicand,w
  4337     078B  07A4               	addwf	___wmul@product,f
  4338     078C  1803               	skipnc
  4339     078D  0AA5               	incf	___wmul@product+1,f
  4340     078E  0823               	movf	___wmul@multiplicand+1,w
  4341     078F  07A5               	addwf	___wmul@product+1,f
  4342     0790                     l477:
  4343     0790  3001               	movlw	1
  4344     0791                     u1995:
  4345     0791  1003               	clrc
  4346     0792  0DA2               	rlf	___wmul@multiplicand,f
  4347     0793  0DA3               	rlf	___wmul@multiplicand+1,f
  4348     0794  3EFF               	addlw	-1
  4349     0795  1D03               	skipz
  4350     0796  2F91               	goto	u1995
  4351     0797                     l2559:
  4352     0797  3001               	movlw	1
  4353     0798                     u2005:
  4354     0798  1003               	clrc
  4355     0799  0CA1               	rrf	___wmul@multiplier+1,f
  4356     079A  0CA0               	rrf	___wmul@multiplier,f
  4357     079B  3EFF               	addlw	-1
  4358     079C  1D03               	skipz
  4359     079D  2F98               	goto	u2005
  4360     079E                     l2561:
  4361     079E  0820               	movf	___wmul@multiplier,w
  4362     079F  0421               	iorwf	___wmul@multiplier+1,w
  4363     07A0  1D03               	btfss	3,2
  4364     07A1  2FA3               	goto	u2011
  4365     07A2  2FA4               	goto	u2010
  4366     07A3                     u2011:
  4367     07A3  2F86               	goto	l2555
  4368     07A4                     u2010:
  4369     07A4                     l2563:
  4370     07A4  0825               	movf	___wmul@product+1,w
  4371     07A5  00A1               	movwf	?___wmul+1
  4372     07A6  0824               	movf	___wmul@product,w
  4373     07A7  00A0               	movwf	?___wmul
  4374     07A8                     l479:
  4375     07A8  0008               	return
  4376     07A9                     __end_of___wmul:
  4377                           
  4378                           	psect	text20
  4379     0720                     __ptext20:	
  4380 ;; *************** function _LEDpos *****************
  4381 ;; Defined at:
  4382 ;;		line 354 in file "main.c"
  4383 ;; Parameters:    Size  Location     Type
  4384 ;;		None
  4385 ;; Auto vars:     Size  Location     Type
  4386 ;;		None
  4387 ;; Return value:  Size  Location     Type
  4388 ;;                  1    wreg      void 
  4389 ;; Registers used:
  4390 ;;		wreg, fsr0l, fsr0h, status,2, status,0
  4391 ;; Tracked objects:
  4392 ;;		On entry : 0/0
  4393 ;;		On exit  : 0/0
  4394 ;;		Unchanged: 0/0
  4395 ;; Data sizes:     COMMON   BANK0   BANK1   BANK3   BANK2
  4396 ;;      Params:         0       0       0       0       0
  4397 ;;      Locals:         0       0       0       0       0
  4398 ;;      Temps:          0       0       0       0       0
  4399 ;;      Totals:         0       0       0       0       0
  4400 ;;Total ram usage:        0 bytes
  4401 ;; Hardware stack levels used: 1
  4402 ;; Hardware stack levels required when called: 2
  4403 ;; This function calls:
  4404 ;;		Nothing
  4405 ;; This function is called by:
  4406 ;;		_adafruitrec
  4407 ;; This function uses a non-reentrant model
  4408 ;;
  4409                           
  4410     0720                     _LEDpos:	
  4411                           ;psect for function _LEDpos
  4412                           
  4413     0720                     l2583:	
  4414                           ;incstack = 0
  4415                           ; Regs used in _LEDpos: [wreg-fsr0h+status,2+status,0]
  4416                           
  4417                           
  4418                           ;main.c: 355:     switch (pos){
  4419     0720  2F3D               	goto	l2595
  4420     0721                     l2585:
  4421                           
  4422                           ;main.c: 357:             PORTD = (PORTD & 0xF0) | 0x01;
  4423     0721  1283               	bcf	3,5	;RP0=0, select bank0
  4424     0722  1303               	bcf	3,6	;RP1=0, select bank0
  4425     0723  0808               	movf	8,w	;volatile
  4426     0724  39F0               	andlw	240
  4427     0725  3801               	iorlw	1
  4428     0726  0088               	movwf	8	;volatile
  4429                           
  4430                           ;main.c: 358:             break;
  4431     0727  2F50               	goto	l273
  4432     0728                     l2587:
  4433                           
  4434                           ;main.c: 360:             PORTD = (PORTD & 0xF0) | 0x02;
  4435     0728  1283               	bcf	3,5	;RP0=0, select bank0
  4436     0729  1303               	bcf	3,6	;RP1=0, select bank0
  4437     072A  0808               	movf	8,w	;volatile
  4438     072B  39F0               	andlw	240
  4439     072C  3802               	iorlw	2
  4440     072D  0088               	movwf	8	;volatile
  4441                           
  4442                           ;main.c: 361:             break;
  4443     072E  2F50               	goto	l273
  4444     072F                     l2589:
  4445                           
  4446                           ;main.c: 363:             PORTD = (PORTD & 0xF0) | 0x04;
  4447     072F  1283               	bcf	3,5	;RP0=0, select bank0
  4448     0730  1303               	bcf	3,6	;RP1=0, select bank0
  4449     0731  0808               	movf	8,w	;volatile
  4450     0732  39F0               	andlw	240
  4451     0733  3804               	iorlw	4
  4452     0734  0088               	movwf	8	;volatile
  4453                           
  4454                           ;main.c: 364:             break;
  4455     0735  2F50               	goto	l273
  4456     0736                     l2591:
  4457                           
  4458                           ;main.c: 366:             PORTD = (PORTD & 0xF0) | 0x08;
  4459     0736  1283               	bcf	3,5	;RP0=0, select bank0
  4460     0737  1303               	bcf	3,6	;RP1=0, select bank0
  4461     0738  0808               	movf	8,w	;volatile
  4462     0739  39F0               	andlw	240
  4463     073A  3808               	iorlw	8
  4464     073B  0088               	movwf	8	;volatile
  4465                           
  4466                           ;main.c: 367:             break;
  4467     073C  2F50               	goto	l273
  4468     073D                     l2595:
  4469                           
  4470                           ; Switch on 2 bytes has been partitioned into a top level switch of size 1, and 1 sub-sw
      +                          itches
  4471                           ; Switch size 1, requested type "simple"
  4472                           ; Number of cases is 1, Range of values is 0 to 0
  4473                           ; switch strategies available:
  4474                           ; Name         Instructions Cycles
  4475                           ; simple_byte            4     3 (average)
  4476                           ; direct_byte           11     8 (fixed)
  4477                           ; jumptable            260     6 (fixed)
  4478                           ;	Chosen strategy is simple_byte
  4479     073D  0871               	movf	_pos+1,w
  4480     073E  3A00               	xorlw	0	; case 0
  4481     073F  1903               	skipnz
  4482     0740  2F42               	goto	l3033
  4483     0741  2F50               	goto	l273
  4484     0742                     l3033:
  4485                           
  4486                           ; Switch size 1, requested type "simple"
  4487                           ; Number of cases is 4, Range of values is 1 to 4
  4488                           ; switch strategies available:
  4489                           ; Name         Instructions Cycles
  4490                           ; simple_byte           13     7 (average)
  4491                           ; direct_byte           23    11 (fixed)
  4492                           ; jumptable            263     9 (fixed)
  4493                           ;	Chosen strategy is simple_byte
  4494     0742  0870               	movf	_pos,w
  4495     0743  3A01               	xorlw	1	; case 1
  4496     0744  1903               	skipnz
  4497     0745  2F21               	goto	l2585
  4498     0746  3A03               	xorlw	3	; case 2
  4499     0747  1903               	skipnz
  4500     0748  2F28               	goto	l2587
  4501     0749  3A01               	xorlw	1	; case 3
  4502     074A  1903               	skipnz
  4503     074B  2F2F               	goto	l2589
  4504     074C  3A07               	xorlw	7	; case 4
  4505     074D  1903               	skipnz
  4506     074E  2F36               	goto	l2591
  4507     074F  2F50               	goto	l273
  4508     0750                     l273:
  4509     0750  0008               	return
  4510     0751                     __end_of_LEDpos:
  4511                           
  4512                           	psect	text21
  4513     07A9                     __ptext21:	
  4514 ;; *************** function _LEDmod *****************
  4515 ;; Defined at:
  4516 ;;		line 371 in file "main.c"
  4517 ;; Parameters:    Size  Location     Type
  4518 ;;		None
  4519 ;; Auto vars:     Size  Location     Type
  4520 ;;		None
  4521 ;; Return value:  Size  Location     Type
  4522 ;;                  1    wreg      void 
  4523 ;; Registers used:
  4524 ;;		wreg, fsr0l, fsr0h, status,2, status,0
  4525 ;; Tracked objects:
  4526 ;;		On entry : 0/0
  4527 ;;		On exit  : 0/0
  4528 ;;		Unchanged: 0/0
  4529 ;; Data sizes:     COMMON   BANK0   BANK1   BANK3   BANK2
  4530 ;;      Params:         0       0       0       0       0
  4531 ;;      Locals:         0       0       0       0       0
  4532 ;;      Temps:          0       0       0       0       0
  4533 ;;      Totals:         0       0       0       0       0
  4534 ;;Total ram usage:        0 bytes
  4535 ;; Hardware stack levels used: 1
  4536 ;; Hardware stack levels required when called: 2
  4537 ;; This function calls:
  4538 ;;		Nothing
  4539 ;; This function is called by:
  4540 ;;		_adafruitrec
  4541 ;; This function uses a non-reentrant model
  4542 ;;
  4543                           
  4544     07A9                     _LEDmod:	
  4545                           ;psect for function _LEDmod
  4546                           
  4547     07A9                     l2567:	
  4548                           ;incstack = 0
  4549                           ; Regs used in _LEDmod: [wreg-fsr0h+status,2+status,0]
  4550                           
  4551                           
  4552                           ;main.c: 372:     switch (modo){
  4553     07A9  2FBF               	goto	l2577
  4554     07AA                     l2569:
  4555                           
  4556                           ;main.c: 374:             PORTD = (PORTD & 0x0F) | 0x10;
  4557     07AA  1283               	bcf	3,5	;RP0=0, select bank0
  4558     07AB  1303               	bcf	3,6	;RP1=0, select bank0
  4559     07AC  0808               	movf	8,w	;volatile
  4560     07AD  390F               	andlw	15
  4561     07AE  3810               	iorlw	16
  4562     07AF  0088               	movwf	8	;volatile
  4563                           
  4564                           ;main.c: 375:             break;
  4565     07B0  2FCF               	goto	l281
  4566     07B1                     l2571:
  4567                           
  4568                           ;main.c: 377:             PORTD = (PORTD & 0x0F) | 0x20;
  4569     07B1  1283               	bcf	3,5	;RP0=0, select bank0
  4570     07B2  1303               	bcf	3,6	;RP1=0, select bank0
  4571     07B3  0808               	movf	8,w	;volatile
  4572     07B4  390F               	andlw	15
  4573     07B5  3820               	iorlw	32
  4574     07B6  0088               	movwf	8	;volatile
  4575                           
  4576                           ;main.c: 378:             break;
  4577     07B7  2FCF               	goto	l281
  4578     07B8                     l2573:
  4579                           
  4580                           ;main.c: 380:             PORTD = (PORTD & 0x0F) | 0x40;
  4581     07B8  1283               	bcf	3,5	;RP0=0, select bank0
  4582     07B9  1303               	bcf	3,6	;RP1=0, select bank0
  4583     07BA  0808               	movf	8,w	;volatile
  4584     07BB  390F               	andlw	15
  4585     07BC  3840               	iorlw	64
  4586     07BD  0088               	movwf	8	;volatile
  4587                           
  4588                           ;main.c: 381:             break;
  4589     07BE  2FCF               	goto	l281
  4590     07BF                     l2577:
  4591                           
  4592                           ; Switch on 2 bytes has been partitioned into a top level switch of size 1, and 1 sub-sw
      +                          itches
  4593                           ; Switch size 1, requested type "simple"
  4594                           ; Number of cases is 1, Range of values is 0 to 0
  4595                           ; switch strategies available:
  4596                           ; Name         Instructions Cycles
  4597                           ; simple_byte            4     3 (average)
  4598                           ; direct_byte           11     8 (fixed)
  4599                           ; jumptable            260     6 (fixed)
  4600                           ;	Chosen strategy is simple_byte
  4601     07BF  0873               	movf	_modo+1,w
  4602     07C0  3A00               	xorlw	0	; case 0
  4603     07C1  1903               	skipnz
  4604     07C2  2FC4               	goto	l3035
  4605     07C3  2FCF               	goto	l281
  4606     07C4                     l3035:
  4607                           
  4608                           ; Switch size 1, requested type "simple"
  4609                           ; Number of cases is 3, Range of values is 0 to 2
  4610                           ; switch strategies available:
  4611                           ; Name         Instructions Cycles
  4612                           ; simple_byte           10     6 (average)
  4613                           ; direct_byte           17     8 (fixed)
  4614                           ; jumptable            260     6 (fixed)
  4615                           ;	Chosen strategy is simple_byte
  4616     07C4  0872               	movf	_modo,w
  4617     07C5  3A00               	xorlw	0	; case 0
  4618     07C6  1903               	skipnz
  4619     07C7  2FAA               	goto	l2569
  4620     07C8  3A01               	xorlw	1	; case 1
  4621     07C9  1903               	skipnz
  4622     07CA  2FB1               	goto	l2571
  4623     07CB  3A03               	xorlw	3	; case 2
  4624     07CC  1903               	skipnz
  4625     07CD  2FB8               	goto	l2573
  4626     07CE  2FCF               	goto	l281
  4627     07CF                     l281:
  4628     07CF  0008               	return
  4629     07D0                     __end_of_LEDmod:
  4630                           
  4631                           	psect	text22
  4632     0312                     __ptext22:	
  4633 ;; *************** function _isr *****************
  4634 ;; Defined at:
  4635 ;;		line 80 in file "main.c"
  4636 ;; Parameters:    Size  Location     Type
  4637 ;;		None
  4638 ;; Auto vars:     Size  Location     Type
  4639 ;;		None
  4640 ;; Return value:  Size  Location     Type
  4641 ;;                  1    wreg      void 
  4642 ;; Registers used:
  4643 ;;		wreg, fsr0l, fsr0h, status,2, status,0, btemp+1, pclath, cstack
  4644 ;; Tracked objects:
  4645 ;;		On entry : 0/0
  4646 ;;		On exit  : 0/0
  4647 ;;		Unchanged: 0/0
  4648 ;; Data sizes:     COMMON   BANK0   BANK1   BANK3   BANK2
  4649 ;;      Params:         0       0       0       0       0
  4650 ;;      Locals:         0       0       0       0       0
  4651 ;;      Temps:          4       0       0       0       0
  4652 ;;      Totals:         4       0       0       0       0
  4653 ;;Total ram usage:        4 bytes
  4654 ;; Hardware stack levels used: 1
  4655 ;; Hardware stack levels required when called: 1
  4656 ;; This function calls:
  4657 ;;		_hightime
  4658 ;;		i1_LEDmod
  4659 ;;		i1_LEDpos
  4660 ;; This function is called by:
  4661 ;;		Interrupt level 1
  4662 ;; This function uses a non-reentrant model
  4663 ;;
  4664                           
  4665     0312                     _isr:	
  4666                           ;psect for function _isr
  4667                           
  4668     0312                     i1l2237:
  4669                           
  4670                           ;main.c: 81:     if (INTCONbits.T0IF){
  4671     0312  1D0B               	btfss	11,2	;volatile
  4672     0313  2B15               	goto	u167_21
  4673     0314  2B16               	goto	u167_20
  4674     0315                     u167_21:
  4675     0315  2B35               	goto	i1l2255
  4676     0316                     u167_20:
  4677     0316                     i1l2239:
  4678                           
  4679                           ;main.c: 82:         INTCONbits.T0IF = 0;
  4680     0316  110B               	bcf	11,2	;volatile
  4681     0317                     i1l2241:
  4682                           
  4683                           ;main.c: 83:         TMR0 = 100;
  4684     0317  3064               	movlw	100
  4685     0318  1283               	bcf	3,5	;RP0=0, select bank0
  4686     0319  1303               	bcf	3,6	;RP1=0, select bank0
  4687     031A  0081               	movwf	1	;volatile
  4688     031B                     i1l2243:
  4689                           
  4690                           ;main.c: 84:         PORTCbits.RC0 = 1;
  4691     031B  1407               	bsf	7,0	;volatile
  4692     031C                     i1l2245:
  4693                           
  4694                           ;main.c: 85:         hightime(HIGHpulse0);
  4695     031C  0875               	movf	_HIGHpulse0+1,w
  4696     031D  00F7               	movwf	hightime@tdelay+1
  4697     031E  0874               	movf	_HIGHpulse0,w
  4698     031F  00F6               	movwf	hightime@tdelay
  4699     0320  120A  158A  275A  120A  118A  	fcall	_hightime
  4700     0325                     i1l2247:
  4701                           
  4702                           ;main.c: 86:         PORTCbits.RC0 = 0;
  4703     0325  1283               	bcf	3,5	;RP0=0, select bank0
  4704     0326  1303               	bcf	3,6	;RP1=0, select bank0
  4705     0327  1007               	bcf	7,0	;volatile
  4706     0328                     i1l2249:
  4707                           
  4708                           ;main.c: 87:         PORTCbits.RC3 = 1;
  4709     0328  1587               	bsf	7,3	;volatile
  4710     0329                     i1l2251:
  4711                           
  4712                           ;main.c: 88:         hightime(HIGHpulse1);
  4713     0329  0844               	movf	_HIGHpulse1+1,w
  4714     032A  00F7               	movwf	hightime@tdelay+1
  4715     032B  0843               	movf	_HIGHpulse1,w
  4716     032C  00F6               	movwf	hightime@tdelay
  4717     032D  120A  158A  275A  120A  118A  	fcall	_hightime
  4718     0332                     i1l2253:
  4719                           
  4720                           ;main.c: 89:         PORTCbits.RC3 = 0;
  4721     0332  1283               	bcf	3,5	;RP0=0, select bank0
  4722     0333  1303               	bcf	3,6	;RP1=0, select bank0
  4723     0334  1187               	bcf	7,3	;volatile
  4724     0335                     i1l2255:
  4725                           
  4726                           ;main.c: 92:     if (INTCONbits.RBIF){
  4727     0335  1C0B               	btfss	11,0	;volatile
  4728     0336  2B38               	goto	u168_21
  4729     0337  2B39               	goto	u168_20
  4730     0338                     u168_21:
  4731     0338  2BC1               	goto	i1l149
  4732     0339                     u168_20:
  4733     0339                     i1l2257:
  4734                           
  4735                           ;main.c: 93:         if (PORTBbits.RB7 == 0)
  4736     0339  1283               	bcf	3,5	;RP0=0, select bank0
  4737     033A  1303               	bcf	3,6	;RP1=0, select bank0
  4738     033B  1B86               	btfsc	6,7	;volatile
  4739     033C  2B3E               	goto	u169_21
  4740     033D  2B3F               	goto	u169_20
  4741     033E                     u169_21:
  4742     033E  2B60               	goto	i1l2269
  4743     033F                     u169_20:
  4744     033F                     i1l128:
  4745     033F  1F86               	btfss	6,7	;volatile
  4746     0340  2B42               	goto	u170_21
  4747     0341  2B43               	goto	u170_20
  4748     0342                     u170_21:
  4749     0342  2B3F               	goto	i1l128
  4750     0343                     u170_20:
  4751     0343                     i1l2261:
  4752                           
  4753                           ;main.c: 96:             if (modo < 2){
  4754     0343  0873               	movf	_modo+1,w
  4755     0344  3A80               	xorlw	128
  4756     0345  00FF               	movwf	btemp+1
  4757     0346  3080               	movlw	128
  4758     0347  027F               	subwf	btemp+1,w
  4759     0348  1D03               	skipz
  4760     0349  2B4C               	goto	u171_25
  4761     034A  3002               	movlw	2
  4762     034B  0272               	subwf	_modo,w
  4763     034C                     u171_25:
  4764     034C  1803               	skipnc
  4765     034D  2B4F               	goto	u171_21
  4766     034E  2B50               	goto	u171_20
  4767     034F                     u171_21:
  4768     034F  2B59               	goto	i1l2265
  4769     0350                     u171_20:
  4770     0350                     i1l2263:
  4771                           
  4772                           ;main.c: 97:                 modo = modo + 1;
  4773     0350  0872               	movf	_modo,w
  4774     0351  3E01               	addlw	1
  4775     0352  00F2               	movwf	_modo
  4776     0353  0873               	movf	_modo+1,w
  4777     0354  1803               	skipnc
  4778     0355  3E01               	addlw	1
  4779     0356  3E00               	addlw	0
  4780     0357  00F3               	movwf	_modo+1
  4781                           
  4782                           ;main.c: 98:             }
  4783     0358  2B5B               	goto	i1l2267
  4784     0359                     i1l2265:
  4785                           
  4786                           ;main.c: 100:                 modo = 0;
  4787     0359  01F2               	clrf	_modo
  4788     035A  01F3               	clrf	_modo+1
  4789     035B                     i1l2267:
  4790                           
  4791                           ;main.c: 102:             LEDmod();
  4792     035B  120A  118A  27D0  120A  118A  	fcall	i1_LEDmod
  4793     0360                     i1l2269:
  4794                           
  4795                           ;main.c: 104:         if(PORTBbits.RB6 == 0){
  4796     0360  1283               	bcf	3,5	;RP0=0, select bank0
  4797     0361  1303               	bcf	3,6	;RP1=0, select bank0
  4798     0362  1B06               	btfsc	6,6	;volatile
  4799     0363  2B65               	goto	u172_21
  4800     0364  2B66               	goto	u172_20
  4801     0365                     u172_21:
  4802     0365  2B89               	goto	i1l2281
  4803     0366                     u172_20:
  4804     0366                     i1l134:
  4805     0366  1F06               	btfss	6,6	;volatile
  4806     0367  2B69               	goto	u173_21
  4807     0368  2B6A               	goto	u173_20
  4808     0369                     u173_21:
  4809     0369  2B66               	goto	i1l134
  4810     036A                     u173_20:
  4811     036A                     i1l2273:
  4812                           
  4813                           ;main.c: 106:             if (pos < 4){
  4814     036A  0871               	movf	_pos+1,w
  4815     036B  3A80               	xorlw	128
  4816     036C  00FF               	movwf	btemp+1
  4817     036D  3080               	movlw	128
  4818     036E  027F               	subwf	btemp+1,w
  4819     036F  1D03               	skipz
  4820     0370  2B73               	goto	u174_25
  4821     0371  3004               	movlw	4
  4822     0372  0270               	subwf	_pos,w
  4823     0373                     u174_25:
  4824     0373  1803               	skipnc
  4825     0374  2B76               	goto	u174_21
  4826     0375  2B77               	goto	u174_20
  4827     0376                     u174_21:
  4828     0376  2B80               	goto	i1l2277
  4829     0377                     u174_20:
  4830     0377                     i1l2275:
  4831                           
  4832                           ;main.c: 107:                 pos = pos +1;
  4833     0377  0870               	movf	_pos,w
  4834     0378  3E01               	addlw	1
  4835     0379  00F0               	movwf	_pos
  4836     037A  0871               	movf	_pos+1,w
  4837     037B  1803               	skipnc
  4838     037C  3E01               	addlw	1
  4839     037D  3E00               	addlw	0
  4840     037E  00F1               	movwf	_pos+1
  4841                           
  4842                           ;main.c: 108:             }
  4843     037F  2B84               	goto	i1l2279
  4844     0380                     i1l2277:
  4845                           
  4846                           ;main.c: 110:                 pos = 1;
  4847     0380  3001               	movlw	1
  4848     0381  00F0               	movwf	_pos
  4849     0382  3000               	movlw	0
  4850     0383  00F1               	movwf	_pos+1
  4851     0384                     i1l2279:
  4852                           
  4853                           ;main.c: 112:             LEDpos();
  4854     0384  120A  118A  2751  120A  118A  	fcall	i1_LEDpos
  4855     0389                     i1l2281:
  4856                           
  4857                           ;main.c: 114:         if(PORTBbits.RB5 == 0){
  4858     0389  1283               	bcf	3,5	;RP0=0, select bank0
  4859     038A  1303               	bcf	3,6	;RP1=0, select bank0
  4860     038B  1A86               	btfsc	6,5	;volatile
  4861     038C  2B8E               	goto	u175_21
  4862     038D  2B8F               	goto	u175_20
  4863     038E                     u175_21:
  4864     038E  2BB2               	goto	i1l2293
  4865     038F                     u175_20:
  4866     038F                     i1l140:
  4867     038F  1E86               	btfss	6,5	;volatile
  4868     0390  2B92               	goto	u176_21
  4869     0391  2B93               	goto	u176_20
  4870     0392                     u176_21:
  4871     0392  2B8F               	goto	i1l140
  4872     0393                     u176_20:
  4873     0393                     i1l2285:
  4874                           
  4875                           ;main.c: 116:             if (pos > 1){
  4876     0393  0871               	movf	_pos+1,w
  4877     0394  3A80               	xorlw	128
  4878     0395  00FF               	movwf	btemp+1
  4879     0396  3080               	movlw	128
  4880     0397  027F               	subwf	btemp+1,w
  4881     0398  1D03               	skipz
  4882     0399  2B9C               	goto	u177_25
  4883     039A  3002               	movlw	2
  4884     039B  0270               	subwf	_pos,w
  4885     039C                     u177_25:
  4886     039C  1C03               	skipc
  4887     039D  2B9F               	goto	u177_21
  4888     039E  2BA0               	goto	u177_20
  4889     039F                     u177_21:
  4890     039F  2BA9               	goto	i1l2289
  4891     03A0                     u177_20:
  4892     03A0                     i1l2287:
  4893                           
  4894                           ;main.c: 117:                 pos = pos - 1;
  4895     03A0  0870               	movf	_pos,w
  4896     03A1  3EFF               	addlw	255
  4897     03A2  00F0               	movwf	_pos
  4898     03A3  0871               	movf	_pos+1,w
  4899     03A4  1803               	skipnc
  4900     03A5  3E01               	addlw	1
  4901     03A6  3EFF               	addlw	255
  4902     03A7  00F1               	movwf	_pos+1
  4903                           
  4904                           ;main.c: 118:             }
  4905     03A8  2BAD               	goto	i1l2291
  4906     03A9                     i1l2289:
  4907                           
  4908                           ;main.c: 120:                 pos = 4;
  4909     03A9  3004               	movlw	4
  4910     03AA  00F0               	movwf	_pos
  4911     03AB  3000               	movlw	0
  4912     03AC  00F1               	movwf	_pos+1
  4913     03AD                     i1l2291:
  4914                           
  4915                           ;main.c: 122:             LEDpos();
  4916     03AD  120A  118A  2751  120A  118A  	fcall	i1_LEDpos
  4917     03B2                     i1l2293:
  4918                           
  4919                           ;main.c: 124:         if(PORTBbits.RB4 == 0){
  4920     03B2  1283               	bcf	3,5	;RP0=0, select bank0
  4921     03B3  1303               	bcf	3,6	;RP1=0, select bank0
  4922     03B4  1A06               	btfsc	6,4	;volatile
  4923     03B5  2BB7               	goto	u178_21
  4924     03B6  2BB8               	goto	u178_20
  4925     03B7                     u178_21:
  4926     03B7  2BC0               	goto	i1l2299
  4927     03B8                     u178_20:
  4928     03B8                     i1l146:
  4929     03B8  1E06               	btfss	6,4	;volatile
  4930     03B9  2BBB               	goto	u179_21
  4931     03BA  2BBC               	goto	u179_20
  4932     03BB                     u179_21:
  4933     03BB  2BB8               	goto	i1l146
  4934     03BC                     u179_20:
  4935     03BC                     i1l2297:
  4936                           
  4937                           ;main.c: 126:             B4Flag = 1;
  4938     03BC  3001               	movlw	1
  4939     03BD  00BF               	movwf	_B4Flag
  4940     03BE  3000               	movlw	0
  4941     03BF  00C0               	movwf	_B4Flag+1
  4942     03C0                     i1l2299:
  4943                           
  4944                           ;main.c: 128:         INTCONbits.RBIF = 0;
  4945     03C0  100B               	bcf	11,0	;volatile
  4946     03C1                     i1l149:
  4947     03C1  087B               	movf	??_isr+3,w
  4948     03C2  00FF               	movwf	btemp+1
  4949     03C3  087A               	movf	??_isr+2,w
  4950     03C4  008A               	movwf	10
  4951     03C5  0879               	movf	??_isr+1,w
  4952     03C6  0084               	movwf	4
  4953     03C7  0E78               	swapf	??_isr,w
  4954     03C8  0083               	movwf	3
  4955     03C9  0EFE               	swapf	btemp,f
  4956     03CA  0E7E               	swapf	btemp,w
  4957     03CB  0009               	retfie
  4958     03CC                     __end_of_isr:
  4959                           
  4960                           	psect	intentry
  4961     0004                     __pintentry:	
  4962                           ;incstack = 0
  4963                           ; Regs used in _isr: [wreg-fsr0h+status,2+status,0+btemp+1+pclath+cstack]
  4964                           
  4965     0004                     interrupt_function:
  4966     007E                     saved_w	set	btemp
  4967     0004  00FE               	movwf	btemp
  4968     0005  0E03               	swapf	3,w
  4969     0006  00F8               	movwf	??_isr
  4970     0007  0804               	movf	4,w
  4971     0008  00F9               	movwf	??_isr+1
  4972     0009  080A               	movf	10,w
  4973     000A  00FA               	movwf	??_isr+2
  4974     000B  087F               	movf	btemp+1,w
  4975     000C  00FB               	movwf	??_isr+3
  4976     000D  120A  118A  2B12   	ljmp	_isr
  4977                           
  4978                           	psect	text23
  4979     0751                     __ptext23:	
  4980 ;; *************** function i1_LEDpos *****************
  4981 ;; Defined at:
  4982 ;;		line 354 in file "main.c"
  4983 ;; Parameters:    Size  Location     Type
  4984 ;;		None
  4985 ;; Auto vars:     Size  Location     Type
  4986 ;;		None
  4987 ;; Return value:  Size  Location     Type
  4988 ;;                  1    wreg      void 
  4989 ;; Registers used:
  4990 ;;		wreg, fsr0l, fsr0h, status,2, status,0
  4991 ;; Tracked objects:
  4992 ;;		On entry : 0/0
  4993 ;;		On exit  : 0/0
  4994 ;;		Unchanged: 0/0
  4995 ;; Data sizes:     COMMON   BANK0   BANK1   BANK3   BANK2
  4996 ;;      Params:         0       0       0       0       0
  4997 ;;      Locals:         0       0       0       0       0
  4998 ;;      Temps:          0       0       0       0       0
  4999 ;;      Totals:         0       0       0       0       0
  5000 ;;Total ram usage:        0 bytes
  5001 ;; Hardware stack levels used: 1
  5002 ;; This function calls:
  5003 ;;		Nothing
  5004 ;; This function is called by:
  5005 ;;		_isr
  5006 ;; This function uses a non-reentrant model
  5007 ;;
  5008                           
  5009     0751                     i1_LEDpos:	
  5010                           ;psect for function i1_LEDpos
  5011                           
  5012     0751                     i1l2203:	
  5013                           ;incstack = 0
  5014                           ; Regs used in i1_LEDpos: [wreg-fsr0h+status,2+status,0]
  5015                           
  5016                           
  5017                           ;main.c: 355:     switch (pos){
  5018     0751  2F6E               	goto	i1l2215
  5019     0752                     i1l2205:
  5020                           
  5021                           ;main.c: 357:             PORTD = (PORTD & 0xF0) | 0x01;
  5022     0752  1283               	bcf	3,5	;RP0=0, select bank0
  5023     0753  1303               	bcf	3,6	;RP1=0, select bank0
  5024     0754  0808               	movf	8,w	;volatile
  5025     0755  39F0               	andlw	240
  5026     0756  3801               	iorlw	1
  5027     0757  0088               	movwf	8	;volatile
  5028                           
  5029                           ;main.c: 358:             break;
  5030     0758  2F81               	goto	i1l273
  5031     0759                     i1l2207:
  5032                           
  5033                           ;main.c: 360:             PORTD = (PORTD & 0xF0) | 0x02;
  5034     0759  1283               	bcf	3,5	;RP0=0, select bank0
  5035     075A  1303               	bcf	3,6	;RP1=0, select bank0
  5036     075B  0808               	movf	8,w	;volatile
  5037     075C  39F0               	andlw	240
  5038     075D  3802               	iorlw	2
  5039     075E  0088               	movwf	8	;volatile
  5040                           
  5041                           ;main.c: 361:             break;
  5042     075F  2F81               	goto	i1l273
  5043     0760                     i1l2209:
  5044                           
  5045                           ;main.c: 363:             PORTD = (PORTD & 0xF0) | 0x04;
  5046     0760  1283               	bcf	3,5	;RP0=0, select bank0
  5047     0761  1303               	bcf	3,6	;RP1=0, select bank0
  5048     0762  0808               	movf	8,w	;volatile
  5049     0763  39F0               	andlw	240
  5050     0764  3804               	iorlw	4
  5051     0765  0088               	movwf	8	;volatile
  5052                           
  5053                           ;main.c: 364:             break;
  5054     0766  2F81               	goto	i1l273
  5055     0767                     i1l2211:
  5056                           
  5057                           ;main.c: 366:             PORTD = (PORTD & 0xF0) | 0x08;
  5058     0767  1283               	bcf	3,5	;RP0=0, select bank0
  5059     0768  1303               	bcf	3,6	;RP1=0, select bank0
  5060     0769  0808               	movf	8,w	;volatile
  5061     076A  39F0               	andlw	240
  5062     076B  3808               	iorlw	8
  5063     076C  0088               	movwf	8	;volatile
  5064                           
  5065                           ;main.c: 367:             break;
  5066     076D  2F81               	goto	i1l273
  5067     076E                     i1l2215:
  5068                           
  5069                           ; Switch on 2 bytes has been partitioned into a top level switch of size 1, and 1 sub-sw
      +                          itches
  5070                           ; Switch size 1, requested type "simple"
  5071                           ; Number of cases is 1, Range of values is 0 to 0
  5072                           ; switch strategies available:
  5073                           ; Name         Instructions Cycles
  5074                           ; simple_byte            4     3 (average)
  5075                           ; direct_byte           11     8 (fixed)
  5076                           ; jumptable            260     6 (fixed)
  5077                           ;	Chosen strategy is simple_byte
  5078     076E  0871               	movf	_pos+1,w
  5079     076F  3A00               	xorlw	0	; case 0
  5080     0770  1903               	skipnz
  5081     0771  2F73               	goto	i1l3037
  5082     0772  2F81               	goto	i1l273
  5083     0773                     i1l3037:
  5084                           
  5085                           ; Switch size 1, requested type "simple"
  5086                           ; Number of cases is 4, Range of values is 1 to 4
  5087                           ; switch strategies available:
  5088                           ; Name         Instructions Cycles
  5089                           ; simple_byte           13     7 (average)
  5090                           ; direct_byte           23    11 (fixed)
  5091                           ; jumptable            263     9 (fixed)
  5092                           ;	Chosen strategy is simple_byte
  5093     0773  0870               	movf	_pos,w
  5094     0774  3A01               	xorlw	1	; case 1
  5095     0775  1903               	skipnz
  5096     0776  2F52               	goto	i1l2205
  5097     0777  3A03               	xorlw	3	; case 2
  5098     0778  1903               	skipnz
  5099     0779  2F59               	goto	i1l2207
  5100     077A  3A01               	xorlw	1	; case 3
  5101     077B  1903               	skipnz
  5102     077C  2F60               	goto	i1l2209
  5103     077D  3A07               	xorlw	7	; case 4
  5104     077E  1903               	skipnz
  5105     077F  2F67               	goto	i1l2211
  5106     0780  2F81               	goto	i1l273
  5107     0781                     i1l273:
  5108     0781  0008               	return
  5109     0782                     __end_ofi1_LEDpos:
  5110                           
  5111                           	psect	text24
  5112     07D0                     __ptext24:	
  5113 ;; *************** function i1_LEDmod *****************
  5114 ;; Defined at:
  5115 ;;		line 371 in file "main.c"
  5116 ;; Parameters:    Size  Location     Type
  5117 ;;		None
  5118 ;; Auto vars:     Size  Location     Type
  5119 ;;		None
  5120 ;; Return value:  Size  Location     Type
  5121 ;;                  1    wreg      void 
  5122 ;; Registers used:
  5123 ;;		wreg, fsr0l, fsr0h, status,2, status,0
  5124 ;; Tracked objects:
  5125 ;;		On entry : 0/0
  5126 ;;		On exit  : 0/0
  5127 ;;		Unchanged: 0/0
  5128 ;; Data sizes:     COMMON   BANK0   BANK1   BANK3   BANK2
  5129 ;;      Params:         0       0       0       0       0
  5130 ;;      Locals:         0       0       0       0       0
  5131 ;;      Temps:          0       0       0       0       0
  5132 ;;      Totals:         0       0       0       0       0
  5133 ;;Total ram usage:        0 bytes
  5134 ;; Hardware stack levels used: 1
  5135 ;; This function calls:
  5136 ;;		Nothing
  5137 ;; This function is called by:
  5138 ;;		_isr
  5139 ;; This function uses a non-reentrant model
  5140 ;;
  5141                           
  5142     07D0                     i1_LEDmod:	
  5143                           ;psect for function i1_LEDmod
  5144                           
  5145     07D0                     i1l2221:	
  5146                           ;incstack = 0
  5147                           ; Regs used in i1_LEDmod: [wreg-fsr0h+status,2+status,0]
  5148                           
  5149                           
  5150                           ;main.c: 372:     switch (modo){
  5151     07D0  2FE6               	goto	i1l2231
  5152     07D1                     i1l2223:
  5153                           
  5154                           ;main.c: 374:             PORTD = (PORTD & 0x0F) | 0x10;
  5155     07D1  1283               	bcf	3,5	;RP0=0, select bank0
  5156     07D2  1303               	bcf	3,6	;RP1=0, select bank0
  5157     07D3  0808               	movf	8,w	;volatile
  5158     07D4  390F               	andlw	15
  5159     07D5  3810               	iorlw	16
  5160     07D6  0088               	movwf	8	;volatile
  5161                           
  5162                           ;main.c: 375:             break;
  5163     07D7  2FF6               	goto	i1l281
  5164     07D8                     i1l2225:
  5165                           
  5166                           ;main.c: 377:             PORTD = (PORTD & 0x0F) | 0x20;
  5167     07D8  1283               	bcf	3,5	;RP0=0, select bank0
  5168     07D9  1303               	bcf	3,6	;RP1=0, select bank0
  5169     07DA  0808               	movf	8,w	;volatile
  5170     07DB  390F               	andlw	15
  5171     07DC  3820               	iorlw	32
  5172     07DD  0088               	movwf	8	;volatile
  5173                           
  5174                           ;main.c: 378:             break;
  5175     07DE  2FF6               	goto	i1l281
  5176     07DF                     i1l2227:
  5177                           
  5178                           ;main.c: 380:             PORTD = (PORTD & 0x0F) | 0x40;
  5179     07DF  1283               	bcf	3,5	;RP0=0, select bank0
  5180     07E0  1303               	bcf	3,6	;RP1=0, select bank0
  5181     07E1  0808               	movf	8,w	;volatile
  5182     07E2  390F               	andlw	15
  5183     07E3  3840               	iorlw	64
  5184     07E4  0088               	movwf	8	;volatile
  5185                           
  5186                           ;main.c: 381:             break;
  5187     07E5  2FF6               	goto	i1l281
  5188     07E6                     i1l2231:
  5189                           
  5190                           ; Switch on 2 bytes has been partitioned into a top level switch of size 1, and 1 sub-sw
      +                          itches
  5191                           ; Switch size 1, requested type "simple"
  5192                           ; Number of cases is 1, Range of values is 0 to 0
  5193                           ; switch strategies available:
  5194                           ; Name         Instructions Cycles
  5195                           ; simple_byte            4     3 (average)
  5196                           ; direct_byte           11     8 (fixed)
  5197                           ; jumptable            260     6 (fixed)
  5198                           ;	Chosen strategy is simple_byte
  5199     07E6  0873               	movf	_modo+1,w
  5200     07E7  3A00               	xorlw	0	; case 0
  5201     07E8  1903               	skipnz
  5202     07E9  2FEB               	goto	i1l3039
  5203     07EA  2FF6               	goto	i1l281
  5204     07EB                     i1l3039:
  5205                           
  5206                           ; Switch size 1, requested type "simple"
  5207                           ; Number of cases is 3, Range of values is 0 to 2
  5208                           ; switch strategies available:
  5209                           ; Name         Instructions Cycles
  5210                           ; simple_byte           10     6 (average)
  5211                           ; direct_byte           17     8 (fixed)
  5212                           ; jumptable            260     6 (fixed)
  5213                           ;	Chosen strategy is simple_byte
  5214     07EB  0872               	movf	_modo,w
  5215     07EC  3A00               	xorlw	0	; case 0
  5216     07ED  1903               	skipnz
  5217     07EE  2FD1               	goto	i1l2223
  5218     07EF  3A01               	xorlw	1	; case 1
  5219     07F0  1903               	skipnz
  5220     07F1  2FD8               	goto	i1l2225
  5221     07F2  3A03               	xorlw	3	; case 2
  5222     07F3  1903               	skipnz
  5223     07F4  2FDF               	goto	i1l2227
  5224     07F5  2FF6               	goto	i1l281
  5225     07F6                     i1l281:
  5226     07F6  0008               	return
  5227     07F7                     __end_ofi1_LEDmod:
  5228                           
  5229                           	psect	text25
  5230     0F5A                     __ptext25:	
  5231 ;; *************** function _hightime *****************
  5232 ;; Defined at:
  5233 ;;		line 202 in file "main.c"
  5234 ;; Parameters:    Size  Location     Type
  5235 ;;  tdelay          2    0[COMMON] int 
  5236 ;; Auto vars:     Size  Location     Type
  5237 ;;		None
  5238 ;; Return value:  Size  Location     Type
  5239 ;;                  1    wreg      void 
  5240 ;; Registers used:
  5241 ;;		wreg, status,2, status,0, btemp+1
  5242 ;; Tracked objects:
  5243 ;;		On entry : 0/0
  5244 ;;		On exit  : 0/0
  5245 ;;		Unchanged: 0/0
  5246 ;; Data sizes:     COMMON   BANK0   BANK1   BANK3   BANK2
  5247 ;;      Params:         2       0       0       0       0
  5248 ;;      Locals:         0       0       0       0       0
  5249 ;;      Temps:          0       0       0       0       0
  5250 ;;      Totals:         2       0       0       0       0
  5251 ;;Total ram usage:        2 bytes
  5252 ;; Hardware stack levels used: 1
  5253 ;; This function calls:
  5254 ;;		Nothing
  5255 ;; This function is called by:
  5256 ;;		_isr
  5257 ;; This function uses a non-reentrant model
  5258 ;;
  5259                           
  5260     0F5A                     _hightime:	
  5261                           ;psect for function _hightime
  5262                           
  5263     0F5A                     i1l1985:	
  5264                           ;incstack = 0
  5265                           ; Regs used in _hightime: [wreg+status,2+status,0+btemp+1]
  5266                           
  5267                           
  5268                           ;main.c: 203:     while (tdelay > 0){
  5269     0F5A  2F63               	goto	i1l1989
  5270     0F5B                     i1l1987:
  5271                           
  5272                           ;main.c: 204:         tdelay = tdelay - 1;
  5273     0F5B  0876               	movf	hightime@tdelay,w
  5274     0F5C  3EFF               	addlw	255
  5275     0F5D  00F6               	movwf	hightime@tdelay
  5276     0F5E  0877               	movf	hightime@tdelay+1,w
  5277     0F5F  1803               	skipnc
  5278     0F60  3E01               	addlw	1
  5279     0F61  3EFF               	addlw	255
  5280     0F62  00F7               	movwf	hightime@tdelay+1
  5281     0F63                     i1l1989:
  5282                           
  5283                           ;main.c: 203:     while (tdelay > 0){
  5284     0F63  0877               	movf	hightime@tdelay+1,w
  5285     0F64  3A80               	xorlw	128
  5286     0F65  00FF               	movwf	btemp+1
  5287     0F66  3080               	movlw	128
  5288     0F67  027F               	subwf	btemp+1,w
  5289     0F68  1D03               	skipz
  5290     0F69  2F6C               	goto	u131_25
  5291     0F6A  3001               	movlw	1
  5292     0F6B  0276               	subwf	hightime@tdelay,w
  5293     0F6C                     u131_25:
  5294     0F6C  1803               	skipnc
  5295     0F6D  2F6F               	goto	u131_21
  5296     0F6E  2F70               	goto	u131_20
  5297     0F6F                     u131_21:
  5298     0F6F  2F5B               	goto	i1l1987
  5299     0F70                     u131_20:
  5300     0F70                     i1l181:
  5301     0F70  0008               	return
  5302     0F71                     __end_of_hightime:
  5303     007E                     btemp	set	126	;btemp
  5304     007E                     wtemp0	set	126
  5305                           
  5306                           	psect	idloc
  5307                           
  5308                           ;Config register IDLOC0 @ 0x2000
  5309                           ;	unspecified, using default values
  5310     2000                     	org	8192
  5311     2000  3FFF               	dw	16383
  5312                           
  5313                           ;Config register IDLOC1 @ 0x2001
  5314                           ;	unspecified, using default values
  5315     2001                     	org	8193
  5316     2001  3FFF               	dw	16383
  5317                           
  5318                           ;Config register IDLOC2 @ 0x2002
  5319                           ;	unspecified, using default values
  5320     2002                     	org	8194
  5321     2002  3FFF               	dw	16383
  5322                           
  5323                           ;Config register IDLOC3 @ 0x2003
  5324                           ;	unspecified, using default values
  5325     2003                     	org	8195
  5326     2003  3FFF               	dw	16383
  5327                           
  5328                           	psect	config
  5329                           
  5330                           ;Config register CONFIG1 @ 0x2007
  5331                           ;	Oscillator Selection bits
  5332                           ;	FOSC = INTRC_NOCLKOUT, INTOSCIO oscillator: I/O function on RA6/OSC2/CLKOUT pin, I/O f
      +                          unction on RA7/OSC1/CLKIN
  5333                           ;	Watchdog Timer Enable bit
  5334                           ;	WDTE = OFF, WDT disabled and can be enabled by SWDTEN bit of the WDTCON register
  5335                           ;	Power-up Timer Enable bit
  5336                           ;	PWRTE = OFF, PWRT disabled
  5337                           ;	RE3/MCLR pin function select bit
  5338                           ;	MCLRE = OFF, RE3/MCLR pin function is digital input, MCLR internally tied to VDD
  5339                           ;	Code Protection bit
  5340                           ;	CP = OFF, Program memory code protection is disabled
  5341                           ;	Data Code Protection bit
  5342                           ;	CPD = OFF, Data memory code protection is disabled
  5343                           ;	Brown Out Reset Selection bits
  5344                           ;	BOREN = OFF, BOR disabled
  5345                           ;	Internal External Switchover bit
  5346                           ;	IESO = OFF, Internal/External Switchover mode is disabled
  5347                           ;	Fail-Safe Clock Monitor Enabled bit
  5348                           ;	FCMEN = OFF, Fail-Safe Clock Monitor is disabled
  5349                           ;	Low Voltage Programming Enable bit
  5350                           ;	LVP = OFF, RB3 pin has digital I/O, HV on MCLR must be used for programming
  5351                           ;	In-Circuit Debugger Mode bit
  5352                           ;	DEBUG = 0x1, unprogramme  5353     2007                     	org	8199
  5354     2007  20D4               	dw	8404
  5355                           
  5356                           ;Config register CONFIG2 @ 0x2008
  5357                           ;	Brown-out Reset Selection bit
  5358                           ;	BOR4V = BOR40V, Brown-out Reset set to 4.0V
  5359                           ;	Flash Program Memory Self Write Enable bits
  5360                           ;	WRT = OFF, Write protection off
  5361     2008                     	org	8200
  5362     2008  3FFF               	dw	16383

Data Sizes:
    Strings     0
    Constant    0
    Data        0
    BSS         23
    Persistent  0
    Stack       0

Auto Spaces:
    Space          Size  Autos    Used
    COMMON           14      6      12
    BANK0            80     31      48
    BANK1            80      0       0
    BANK3            96      0       0
    BANK2            96      0       0

Pointer List with Targets:

    None.

Critical Paths under _main in COMMON

    None.

Critical Paths under _isr in COMMON

    _isr->_hightime

Critical Paths under _main in BANK0

    _main->_modomanual
    _modomanual->_mapeo
    _adafruitrec->_mapeo
    _writepos->_write_EEPROM
    _mapeo->___awdiv
    ___awdiv->___wmul
    _lecpos->_read_EEPROM
    _convint->___wmul

Critical Paths under _isr in BANK0

    None.

Critical Paths under _main in BANK1

    None.

Critical Paths under _isr in BANK1

    None.

Critical Paths under _main in BANK3

    None.

Critical Paths under _isr in BANK3

    None.

Critical Paths under _main in BANK2

    None.

Critical Paths under _isr in BANK2

    None.

Call Graph Tables:

 ---------------------------------------------------------------------------------
 (Depth) Function   	        Calls       Base Space   Used Autos Params    Refs
 ---------------------------------------------------------------------------------
 (0) _main                                                 1     1      0   13495
                                             30 BANK0      1     1      0
                        _adafruitrec
                           _initUART
                             _lecpos
                         _modomanual
                              _setup
                        _setupINTOSC
                           _setupPWM
                          _setupTMR0
                          _setup_ADC
                        _setup_portb
                           _writepos
 ---------------------------------------------------------------------------------
 (1) _setup_portb                                          0     0      0       0
 ---------------------------------------------------------------------------------
 (1) _setup_ADC                                            1     1      0       0
                                              0 BANK0      1     1      0
 ---------------------------------------------------------------------------------
 (1) _setupTMR0                                            0     0      0       0
 ---------------------------------------------------------------------------------
 (1) _setupPWM                                             0     0      0       0
 ---------------------------------------------------------------------------------
 (1) _setupINTOSC                                          1     1      0     248
                                              0 BANK0      1     1      0
 ---------------------------------------------------------------------------------
 (1) _setup                                                0     0      0       0
 ---------------------------------------------------------------------------------
 (1) _modomanual                                           3     3      0    4948
                                             27 BANK0      3     3      0
                              _mapeo
 ---------------------------------------------------------------------------------
 (1) _initUART                                             0     0      0       0
 ---------------------------------------------------------------------------------
 (1) _adafruitrec                                          2     2      0    7574
                                             27 BANK0      2     2      0
                             _LEDmod
                             _LEDpos
                            _convint
                             _lecpos
                         _lecturanum
                              _mapeo
                           _writepos
 ---------------------------------------------------------------------------------
 (1) _writepos                                             2     2      0     558
                                              2 BANK0      2     2      0
                       _write_EEPROM
 ---------------------------------------------------------------------------------
 (2) _write_EEPROM                                         2     1      1     422
                                              0 BANK0      2     1      1
 ---------------------------------------------------------------------------------
 (2) _mapeo                                               12     2     10    4948
                                             15 BANK0     12     2     10
                            ___awdiv
                             ___wmul
 ---------------------------------------------------------------------------------
 (3) ___awdiv                                              9     5      4     452
                                              6 BANK0      9     5      4
                             ___wmul (ARG)
 ---------------------------------------------------------------------------------
 (2) _lecturanum                                           0     0      0       0
 ---------------------------------------------------------------------------------
 (1) _lecpos                                               4     4      0     167
                                              1 BANK0      4     4      0
                        _read_EEPROM
 ---------------------------------------------------------------------------------
 (2) _read_EEPROM                                          1     1      0      31
                                              0 BANK0      1     1      0
 ---------------------------------------------------------------------------------
 (2) _convint                                             13    11      2    1901
                                              6 BANK0     13    11      2
                             ___wmul
                          _chartoint
 ---------------------------------------------------------------------------------
 (3) _chartoint                                            3     1      2     310
                                              0 BANK0      3     1      2
 ---------------------------------------------------------------------------------
 (3) ___wmul                                               6     2      4     676
                                              0 BANK0      6     2      4
 ---------------------------------------------------------------------------------
 (2) _LEDpos                                               0     0      0       0
 ---------------------------------------------------------------------------------
 (2) _LEDmod                                               0     0      0       0
 ---------------------------------------------------------------------------------
 Estimated maximum stack depth 3
 ---------------------------------------------------------------------------------
 (Depth) Function   	        Calls       Base Space   Used Autos Params    Refs
 ---------------------------------------------------------------------------------
 (4) _isr                                                  4     4      0     197
                                              2 COMMON     4     4      0
                           _hightime
                           i1_LEDmod
                           i1_LEDpos
 ---------------------------------------------------------------------------------
 (5) i1_LEDpos                                             0     0      0       0
 ---------------------------------------------------------------------------------
 (5) i1_LEDmod                                             0     0      0       0
 ---------------------------------------------------------------------------------
 (5) _hightime                                             2     0      2     197
                                              0 COMMON     2     0      2
 ---------------------------------------------------------------------------------
 Estimated maximum stack depth 5
 ---------------------------------------------------------------------------------

 Call Graph Graphs:

 _main (ROOT)
   _adafruitrec
     _LEDmod
     _LEDpos
     _convint
       ___wmul
       _chartoint
     _lecpos
       _read_EEPROM
     _lecturanum
     _mapeo
       ___awdiv
         ___wmul (ARG)
       ___wmul
     _writepos
       _write_EEPROM
   _initUART
   _lecpos
   _modomanual
     _mapeo
   _setup
   _setupINTOSC
   _setupPWM
   _setupTMR0
   _setup_ADC
   _setup_portb
   _writepos

 _isr (ROOT)
   _hightime
   i1_LEDmod
   i1_LEDpos

 Address spaces:
Name               Size   Autos  Total    Cost      Usage
BITCOMMON            E      0       0       0        0.0%
EEDATA             100      0       0       0        0.0%
NULL                 0      0       0       0        0.0%
CODE                 0      0       0       0        0.0%
COMMON               E      6       C       1       85.7%
BITSFR0              0      0       0       1        0.0%
SFR0                 0      0       0       1        0.0%
BITSFR1              0      0       0       2        0.0%
SFR1                 0      0       0       2        0.0%
STACK                0      0       0       2        0.0%
ABS                  0      0      3C       3        0.0%
BITBANK0            50      0       0       4        0.0%
BITSFR3              0      0       0       4        0.0%
SFR3                 0      0       0       4        0.0%
BANK0               50     1F      30       5       60.0%
BITSFR2              0      0       0       5        0.0%
SFR2                 0      0       0       5        0.0%
BITBANK1            50      0       0       6        0.0%
BANK1               50      0       0       7        0.0%
BITBANK3            60      0       0       8        0.0%
BANK3               60      0       0       9        0.0%
BITBANK2            60      0       0      10        0.0%
BANK2               60      0       0      11        0.0%
DATA                 0      0      3C      12        0.0%


Microchip Technology PIC Macro Assembler V2.40 build 20220703182018 
Symbol Table                                                                                   Fri Nov 18 00:10:09 2022

                     _RD 0C60                       _WR 0C61             ___awdiv@sign 002C  
                     fsr 0004      ___wmul@multiplicand 0022           mapeo@resultado 0039  
                    l203 0658                      l301 0526                      l213 04B6  
                    l222 0F99                      l230 0028                      l311 01DE  
                    l216 0F8B                      l209 0479                      l225 0FA0  
                    l321 02DA                      l313 0234                      l330 059D  
                    l219 0F92                      l251 00AB                      l323 02DE  
                    l315 0238                      l331 05AA                      l244 007A  
                    l332 05B7                      l172 0F59                      l245 007B  
                    l237 0051                      l229 0027                      l325 0311  
                    l317 02A0                      l309 01DA                      l333 05C4  
                    l190 0FA4                      l238 0052                      l166 0F47  
                    l334 05D1                      l175 071F                      l263 01A8  
                    l319 02A4                      l335 05DE                      l184 0FBF  
                    l264 01CB                      l336 05EA                      l281 07CF  
                    l273 0750                      l193 0FBB                      l353 06EA  
                    l169 0F39                      l338 05F7                      l370 0FEB  
                    l187 0FDD                      l284 06B2                      l372 0FEF  
                    l373 0FF8                      l630 058F                      l199 062D  
                    l391 0F87                      l375 0FFC                      l288 0526  
                    l376 0FFF                      l477 0790                      l479 07A8  
                    _PR2 0092                      _dec 004F                      _isr 0312  
                    _pos 0070                      fsr0 0004                      _uni 004D  
                    indf 0000                     l3031 01B4                     l3033 0742  
                   l3035 07C4                     l2501 04DF                     l2601 05F8  
                   l2531 0505                     l2523 04FA                     l2515 04EF  
                   l2507 04E4                     l2451 0FD1                     l2611 0618  
                   l2603 05FE                     l2541 0516                     l2533 050B  
                   l2525 0500                     l2517 04F5                     l2509 04EA  
                   l2461 0FDC                     l2453 0FD4                     l2621 0642  
                   l2613 061F                     l2605 0603                     l2701 05F4  
                   l2471 0FB7                     l2463 0FA4                     l2631 0456  
                   l2455 0FD5                     l2447 0FBF                     l2623 064D  
                   l2615 0626                     l2607 060A                     l2711 0FE7  
                   l2703 06B3                     l2561 079E                     l2553 0782  
                   l2465 0FAA                     l2633 045D                     l2641 0479  
                   l2625 0444                     l1841 0533                     l2457 0FDA  
                   l2449 0FC5                     l2609 0611                     l2617 062D  
                   l2801 00B4                     l2713 0FE8                     l2721 0F48  
                   l2705 06E3                     l2571 07B1                     l2563 07A4  
                   l2555 0786                     l2547 051B                     l2539 0510  
                   l2491 04CE                     l2483 04C3                     l2475 04BA  
                   l2467 0FAE                     l2643 0489                     l2635 0464  
                   l2627 044A                     l1851 0544                     l1843 0535  
                   l1835 0527                     l2651 071B                     l2459 0FDB  
                   l2619 0637                     l2811 0135                     l2803 00BB  
                   l2715 0FEA                     l2707 0FDE                     l2723 0F4F  
                   l2731 0F32                     l2573 07B8                     l2557 078A  
                   l2549 0521                     l2493 04D4                     l2485 04C9  
                   l2477 04C0                     l2469 0FB4                     l2645 0498  
                   l2637 046B                     l2629 044F                     l2661 0F96  
                   l1861 055C                     l1853 054A                     l1845 0539  
                   l1837 052A                     l2813 016B                     l2805 00F1  
                   l2741 0F76                     l2717 0FF3                     l2709 0FE1  
                   l2725 0F53                     l2733 0F33                     l2901 040F  
                   l2567 07A9                     l2591 0736                     l2583 0720  
                   l2559 0797                     l2647 04A7                     l2639 0472  
                   l2663 0F98                     l2655 0F88                     l1863 056D  
                   l1855 054D                     l1871 0581                     l1847 053E  
                   l1839 052E                     l2815 0172                     l2807 00F8  
                   l2751 0F83                     l2743 0F79                     l2831 01DF  
                   l2719 0FF7                     l2727 0F57                     l2735 0F38  
                   l2911 042C                     l2903 0417                     l2569 07AA  
                   l2577 07BF                     l2585 0721                     l2665 0F9D  
                   l2657 0F8F                     l1873 0586                     l1865 0573  
                   l1857 0554                     l1849 0542                     l2649 06EB  
                   l2809 012E                     l2761 0033                     l2817 01AA  
                   l2753 0F86                     l2745 0F7C                     l2737 0F71  
                   l2841 0224                     l2833 01E5                     l2825 01CC  
                   l2681 0F46                     l2673 0F3A                     l2729 0F2E  
                   l2913 0434                     l2905 0419                     l2587 0728  
                   l2595 073D                     l2499 04D9                     l2667 0F9F  
                   l2659 0F91                     l1875 058B                     l1867 0574  
                   l1859 0558                     l2771 005C                     l2763 0040  
                   l2755 0026                     l2747 0F7D                     l2739 0F75  
                   l2851 023F                     l2843 0226                     l2835 0206  
                   l2827 01D0                     l2675 0F40                     l2691 05BE  
                   l2683 0593                     l2915 0436                     l2907 041E  
                   l2589 072F                     l2669 065C                     l1869 057B  
                   l2781 007F                     l2773 0062                     l2765 0049  
                   l2757 002C                     l2749 0F80                     l2861 0290  
                   l2853 0260                     l2845 022A                     l2837 020C  
                   l2829 01D7                     l2677 0F42                     l2693 05CB  
                   l2685 0599                     l2917 043B                     l2909 0426  
                   l2791 009B                     l2783 0085                     l2775 0068  
                   l2767 004B                     l2759 0032                     l2871 02AB  
                   l2863 0292                     l2855 0266                     l2847 0231  
                   l2839 021C                     l2679 0F43                     l2695 05D8  
                   l2687 05A4                     l2793 00A0                     l2785 008A  
                   l2777 006E                     l2769 0056                     l2881 02E5  
                   l2873 02CC                     l2865 0296                     l2857 0276  
                   l2849 0239                     l2697 05E4                     l2689 05B1  
                   l2795 00A6                     l2787 0090                     l2779 0074  
                   l2883 0306                     l2875 02D0                     l2867 029D  
                   l2859 027F                     l2699 05F0                     l2891 03F8  
                   l2789 0095                     l2797 00AB                     l2877 02D7  
                   l2869 02A5                     l2893 03F9                     l2885 03CC  
                   l2799 00B0                     l2879 02DF                     l2895 03FF  
                   l2887 03F0                     l2897 0404                     l2889 03F4  
                   l2899 040A                     _ADIF 0066                     ?_isr 0076  
                   u1100 052E                     u1101 052D                     u1110 0539  
                   u1111 0538                     u1120 054A                     u1121 0549  
                   u2010 07A4                     u2011 07A3                     u2100 0F8F  
                   u1140 055C                     u2020 05FE                     u2005 0798  
                   u2101 0F8E                     u1141 055B                     u2021 05FD  
                   u2110 0F96                     u2030 060A                     u2111 0F95  
                   u1135 054E                     u2031 0609                     u2120 0F9D  
                   u1160 056D                     u2040 0618                     u2200 05F0  
                   u2121 0F9C                     u1161 056C                     u2041 0617  
                   u2201 05EF                     u2050 0626                     u2130 0599  
                   u2210 0FEF                     u1155 055D                     u2051 0625  
                   u2131 0598                     u2211 0FEE                     u2060 044A  
                   u1180 0581                     u2300 0074                     u2140 05A4  
                   u2220 0FFC                     _IOCB 0096                     u2061 0449  
                   u1181 0580                     u1165 0569                     u2301 0073  
                   u2141 05A3                     u2221 0FFB                     u2070 0456  
                   u1190 0586                     u2310 007F                     u2230 002C  
                   u2150 05B1                     u2071 0455                     u1191 0585  
                   u1175 0575                     u2311 007E                     u2231 002B  
                   u2151 05B0                     u2080 0464                     u2320 0085  
                   u2240 0032                     u2400 01DE                     u2160 05BE  
                   u2081 0463                     u2321 0084                     u2241 0031  
                   u2401 01DD                     u2161 05BD                     u2090 0472  
                   u2330 0090                     u2250 0040                     u2410 01E5  
                   u2170 05CB                     u2091 0471                     u2331 008F  
                   u2251 003F                     u2411 01E4                     u2171 05CA  
                   u2340 009B                     u2260 0056                     u2420 0238  
                   u2180 05D8                     u2500 0417                     u2341 009A  
                   u2261 0055                     u2421 0237                     u2181 05D7  
                   u2501 0416                     u2350 00A6                     u2270 005C  
                   u2430 023F                     u2190 05E4                     u2510 042C  
                   u2351 00A5                     u2271 005B                     u2255 003C  
                   u2431 023E                     u2191 05E3                     u2511 042B  
                   u2360 00BB                     u2280 0062                     u2440 02A4  
                   u2520 0434                     u2361 00BA                     u2281 0061  
                   u2441 02A3                     u2521 0433                     u2370 00F8  
                   u2290 006E                     u2450 02AB                     u2371 00F7  
                   u2291 006D                     u2451 02AA                     u1900 04D4  
                   u2380 0135                     u2460 02DE                     u1901 04D3  
                   u2381 0134                     u2461 02DD                     u1910 04DF  
                   u2390 0172                     u2470 02E5                     u1911 04DE  
                   u2391 0171                     u2471 02E4                     u1920 04EA  
                   u2480 03FF                     u1921 04E9                     u2537 0422  
                   u2481 03FE                     u1930 04F5                     u1850 0FC5  
                   u2490 040A                     u1931 04F4                     u1851 0FC4  
                   u2547 06E7                     u2491 0409                     u1940 0500  
                   u1860 0FAA                     u1941 04FF                     u1861 0FA9  
                   u2557 01D4                     u1950 050B                     u1870 0FAE  
                   u1951 050A                     u1871 0FAD                     u2567 022E  
                   u1960 0516                     u1880 04C0                     u1961 0515  
                   u1881 04BF                     u2577 029A                     u1970 0521  
                   u1890 04C9                     u1971 0520                     u1891 04C8  
                   u2587 02D4                     u1980 078A                     u1981 0789  
                   u2597 030C                     u1995 0791                     _RCIF 0065  
                   _TMR0 0001                     _WPUB 0095                     _cent 004E  
                   _cont 0041                     _main 03CC                     _modo 0072  
                   btemp 007E                     start 0010             ?_read_EEPROM 0076  
                  ??_isr 0078                    ?_main 0076          __end_of___awdiv 0590  
                  _EEADR 010D                    _EEDAT 010C          ___awdiv@divisor 0026  
                  i1l140 038F                    i1l134 0366                    i1l128 033F  
                  i1l146 03B8                    i1l181 0F70                    i1l149 03C1  
                  i1l281 07F6                    i1l273 0781         __end_ofi1_LEDmod 07F7  
       __end_ofi1_LEDpos 0782          ___awdiv@counter 002B                    _RCREG 001A  
                  _SPBRG 0099                    _PORTC 0007                    _PORTD 0008  
                  _TRISB 0086                    _TRISC 0087                    _TRISD 0088  
                  _v1PWM 004B                    _v2PWM 0049          __end_of_convint 06B3  
                  _vPWMh 0045                    _vPWMl 0047                    _mapeo 06EB  
                  _setup 0F3A                    pclath 000A                    status 0003  
                  wtemp0 007E              mapeo@outmax 0037              mapeo@outmin 0035  
        __initialization 0013             __end_of_main 0444                   ??_main 003E  
           _write_EEPROM 0FBC                   _B4Flag 003F                   ?_mapeo 002F  
                 _ADRESH 001E                   _CCPR1L 0015                   _CCPR2L 001B  
                 _EECON2 018D         ___awdiv@dividend 0028                   ?_setup 0076  
                 _ANSELH 0189                   i1l2211 0767                   i1l2203 0751  
                 i1l2221 07D0                   i1l2205 0752                   i1l2223 07D1  
                 i1l2231 07E6                   i1l2207 0759                   i1l2215 076E  
                 i1l2225 07D8                   i1l2209 0760                   i1l2241 0317  
                 i1l2227 07DF                   i1l2251 0329                   i1l2243 031B  
                 i1l3037 0773                   i1l2261 0343                   i1l2253 0332  
                 i1l2245 031C                   i1l2237 0312                   i1l3039 07EB  
                 i1l2263 0350                   i1l2247 0325                   i1l2239 0316  
                 i1l2255 0335                   i1l2273 036A                   i1l2281 0389  
                 i1l2265 0359                   i1l2257 0339                   i1l2249 0328  
                 i1l2291 03AD                   i1l2275 0377                   i1l2267 035B  
                 i1l2285 0393                   i1l2293 03B2                   i1l2277 0380  
                 i1l2269 0360                   i1l2287 03A0                   i1l2279 0384  
                 i1l2297 03BC                   i1l2289 03A9                   i1l2299 03C0  
                 u131_20 0F70                   u131_21 0F6F                   u131_25 0F6C  
                 i1l1985 0F5A                   i1l1987 0F5B                   i1l1989 0F63  
                 u170_20 0343                   u170_21 0342                   u171_20 0350  
                 u171_21 034F                   u171_25 034C                   u172_20 0366  
                 u172_21 0365                   u173_20 036A                   u173_21 0369  
                 u174_20 0377                   u174_21 0376                   u174_25 0373  
                 u175_20 038F                   u167_20 0316                   u175_21 038E  
                 u167_21 0315                   u176_20 0393                   u168_20 0339  
                 u176_21 0392                   u168_21 0338                   u177_20 03A0  
                 u169_20 033F                   u177_21 039F                   u169_21 033E  
                 u177_25 039C                   u178_20 03B8                   u178_21 03B7  
                 _LEDmod 07A9                   u179_20 03BC                   u179_21 03BB  
                 _LEDpos 0720                   _TMR2IF 0061                   _SPBRGH 009A  
                 _TMR2ON 0092         __end_of_hightime 0F71                   ___wmul 0782  
              ??___awdiv 002A         __end_of_initUART 0F88                   _lecpos 0444  
       ___awdiv@quotient 002D             ?_setupINTOSC 0076                ??_convint 0028  
       __end_of_setupPWM 1000                   saved_w 007E         __end_of_writepos 0659  
           ?_setup_portb 0076  __end_of__initialization 0022                ?i1_LEDmod 0076  
              ?i1_LEDpos 0076           __pcstackCOMMON 0076            __end_of_mapeo 0720  
          __end_of_setup 0F48       read_EEPROM@address 0020           _OPTION_REGbits 0081  
                ??_mapeo 0039         write_EEPROM@data 0020                  ??_setup 0020  
             __pbssBANK0 003F                  ?_LEDmod 0076                  ?_LEDpos 0076  
             ??i1_LEDmod 0076               ??i1_LEDpos 0076               __pmaintext 03CC  
                ?___wmul 0020               __pintentry 0004                  _CCP1CON 0017  
                _CCP2CON 001D                  ?_lecpos 0076            ??_adafruitrec 003B  
              ?_hightime 0076                ?_initUART 0076        __end_of_chartoint 0527  
             _lecturanum 0F88                ?_setupPWM 0076                  ___awdiv 0527  
              _ANSELbits 0188                  __ptext1 0F2E                  __ptext2 06B3  
                __ptext3 0F48                  __ptext4 0FDE                  __ptext5 0590  
                __ptext6 0F3A                  __ptext7 01CC                  __ptext8 0F71  
                __ptext9 0026                ?_writepos 0076                  _convint 0659  
              _T2CONbits 0012                  clrloop0 07F8               _modomanual 01CC  
   end_of_initialization 0022               ??_hightime 0078               ??_initUART 0020  
    write_EEPROM@address 0021      __end_of_adafruitrec 01CC        __end_of_setupTMR0 0F5A  
      __end_of_setup_ADC 06EB                _RCSTAbits 0018               ??_setupPWM 0020  
              _PORTAbits 0005                _PORTBbits 0006                _PORTCbits 0007  
              _PORTDbits 0008               ??_writepos 0022                _TRISAbits 0085  
              _TRISCbits 0087              _CCP1CONbits 0017           __end_of_LEDmod 07D0  
            _CCP2CONbits 001D                _TXSTAbits 0098           __end_of_LEDpos 0751  
            ?_lecturanum 0076           __end_of___wmul 07A9              _BAUDCTLbits 0187  
         __end_of_lecpos 04B7               lecpos@addr 0023               mapeo@inmax 0033  
             mapeo@inmin 0031             writepos@addr 0022      start_initialization 0013  
             mapeo@valor 002F              __end_of_isr 03CC              _adafruitrec 0026  
            ?_modomanual 0076                 ??_LEDmod 0020                 ??_LEDpos 0020  
         hightime@tdelay 0076            ??_read_EEPROM 0020                 ??___wmul 0024  
               ??_lecpos 0021              __pbssCOMMON 0070                ___latbits 0002  
          __pcstackBANK0 0020          setupINTOSC@IRCF 0020                _chartoint 04B7  
               ?___awdiv 0026          convint@centenas 002C      __end_of_read_EEPROM 0FBC  
               ?_convint 0026            ?_write_EEPROM 0020          convint@unidades 0027  
      interrupt_function 0004           ___wmul@product 0024                clear_ram0 07F7  
               i1_LEDmod 07D0                 i1_LEDpos 0751               ?_chartoint 0020  
               _PIR1bits 000C                _setupTMR0 0F48                _setup_ADC 06B3  
             _ADCON0bits 001F               _ADCON1bits 009F            ??_setupINTOSC 0020  
      ___wmul@multiplier 0020           ??_write_EEPROM 0021             chartoint@num 0022  
          ??_setup_portb 0020               _EECON1bits 018C              _read_EEPROM 0FA1  
           ??_lecturanum 0020               ?_setupTMR0 0076               ?_setup_ADC 0076  
         convint@decenas 0026             ?_adafruitrec 0076                 __ptext10 05F8  
               __ptext11 0FBC                 __ptext20 0720                 __ptext12 06EB  
               __ptext21 07A9                 __ptext13 0527                 __ptext22 0312  
               __ptext14 0F88                 __ptext23 0751                 __ptext15 0444  
               __ptext24 07D0                 __ptext16 0FA1                 __ptext25 0F5A  
               __ptext17 0659                 __ptext18 04B7                 __ptext19 0782  
    __end_of_setupINTOSC 05F8             ??_modomanual 003B       __end_of_lecturanum 0FA1  
               _hightime 0F5A                 _initUART 0F71              ??_chartoint 0022  
    __end_of_setup_portb 0F3A                 _setupPWM 0FDE               _HIGHpulse0 0074  
             _HIGHpulse1 0043       __end_of_modomanual 0312                 convint@c 0031  
               convint@d 002F                 convint@u 002D                 _writepos 05F8  
             _INTCONbits 000B                 intlevel1 0000     __end_of_write_EEPROM 0FDE  
             _OSCCONbits 008F              ??_setupTMR0 0020              ??_setup_ADC 0020  
            _setupINTOSC 0590              _setup_portb 0F2E  
