

Microchip MPLAB XC8 Assembler V2.40 build 20220703182018 
                                                                                               Fri Nov 18 23:52:21 2022

Microchip MPLAB XC8 C Compiler v2.40 (Free license) build 20220703182018 Og1 
     1                           	processor	16F887
     2                           	pagewidth 120
     3                           	opt	flic
     4                           	psect	cinit,global,class=CODE,merge=1,delta=2
     5                           	psect	bssCOMMON,global,class=COMMON,space=1,delta=1,noexec
     6                           	psect	bssBANK0,global,class=BANK0,space=1,delta=1,noexec
     7                           	psect	clrtext,global,class=CODE,delta=2
     8                           	psect	cstackCOMMON,global,class=COMMON,space=1,delta=1,noexec
     9                           	psect	cstackBANK0,global,class=BANK0,space=1,delta=1,noexec
    10                           	psect	maintext,global,class=CODE,split=1,delta=2
    11                           	psect	text1,local,class=CODE,merge=1,delta=2
    12                           	psect	text2,local,class=CODE,merge=1,delta=2
    13                           	psect	text3,local,class=CODE,merge=1,delta=2
    14                           	psect	text4,local,class=CODE,merge=1,delta=2
    15                           	psect	text5,local,class=CODE,merge=1,delta=2
    16                           	psect	text6,local,class=CODE,merge=1,delta=2
    17                           	psect	text7,local,class=CODE,merge=1,delta=2
    18                           	psect	text8,local,class=CODE,merge=1,delta=2
    19                           	psect	text9,local,class=CODE,merge=1,delta=2
    20                           	psect	text10,local,class=CODE,merge=1,delta=2
    21                           	psect	text11,local,class=CODE,merge=1,delta=2
    22                           	psect	text12,local,class=CODE,merge=1,delta=2
    23                           	psect	text13,local,class=CODE,merge=1,delta=2,group=1
    24                           	psect	text14,local,class=CODE,merge=1,delta=2
    25                           	psect	text15,local,class=CODE,merge=1,delta=2
    26                           	psect	text16,local,class=CODE,merge=1,delta=2
    27                           	psect	text17,local,class=CODE,merge=1,delta=2
    28                           	psect	text18,local,class=CODE,merge=1,delta=2
    29                           	psect	text19,local,class=CODE,merge=1,delta=2,group=1
    30                           	psect	text20,local,class=CODE,merge=1,delta=2
    31                           	psect	text21,local,class=CODE,merge=1,delta=2
    32                           	psect	text22,local,class=CODE,merge=1,delta=2
    33                           	psect	intentry,global,class=CODE,delta=2
    34                           	psect	text23,local,class=CODE,merge=1,delta=2
    35                           	psect	text24,local,class=CODE,merge=1,delta=2
    36                           	psect	text25,local,class=CODE,merge=1,delta=2
    37                           	psect	idloc,global,abs,ovrld,class=IDLOC,space=5,delta=2,noexec
    38                           	psect	config,global,abs,ovrld,class=CONFIG,space=4,delta=2,noexec
    39                           	dabs	1,0x7E,2
    40     0000                     
    41                           ; Version 2.40
    42                           ; Generated 17/11/2021 GMT
    43                           ; 
    44                           ; Copyright © 2021, Microchip Technology Inc. and its subsidiaries ("Microchip")
    45                           ; All rights reserved.
    46                           ; 
    47                           ; This software is developed by Microchip Technology Inc. and its subsidiaries ("Microch
      +                          ip").
    48                           ; 
    49                           ; Redistribution and use in source and binary forms, with or without modification, are
    50                           ; permitted provided that the following conditions are met:
    51                           ; 
    52                           ;     1. Redistributions of source code must retain the above copyright notice, this lis
      +                          t of
    53                           ;        conditions and the following disclaimer.
    54                           ; 
    55                           ;     2. Redistributions in binary form must reproduce the above copyright notice, this 
      +                          list
    56                           ;        of conditions and the following disclaimer in the documentation and/or other
    57                           ;        materials provided with the distribution. Publication is not required when
    58                           ;        this file is used in an embedded application.
    59                           ; 
    60                           ;     3. Microchip's name may not be used to endorse or promote products derived from th
      +                          is
    61                           ;        software without specific prior written permission.
    62                           ; 
    63                           ; THIS SOFTWARE IS PROVIDED BY MICROCHIP "AS IS" AND ANY EXPRESS OR IMPLIED WARRANTIES,
    64                           ; INCLUDING, BUT NOT LIMITED TO, THE IMPLIED WARRANTIES OF MERCHANTABILITY AND FITNESS F
      +                          OR
    65                           ; PURPOSE ARE DISCLAIMED.  IN NO EVENT SHALL MICROCHIP BE LIABLE FOR ANY DIRECT, INDIREC
      +                          T,
    66                           ; INCIDENTAL, SPECIAL, EXEMPLARY, OR CONSEQUENTIAL DAMAGES (INCLUDING BUT NOT LIMITED TO
    67                           ; PROCUREMENT OF SUBSTITUTE GOODS OR SERVICES; LOSS OF USE, DATA OR PROFITS; OR BUSINESS
    68                           ; INTERRUPTION) HOWSOEVER CAUSED AND ON ANY THEORY OF LIABILITY, WHETHER IN CONTRACT, ST
      +                          RICT
    69                           ; LIABILITY, OR TORT (INCLUDING NEGLIGENCE OR OTHERWISE) ARISING IN ANY WAY OUT OF THE U
      +                          SE OF
    70                           ; THIS SOFTWARE, EVEN IF ADVISED OF THE POSSIBILITY OF SUCH DAMAGE.
    71                           ; 
    72                           ; 
    73                           ; Code-generator required, PIC16F887 Definitions
    74                           ; 
    75                           ; SFR Addresses
    76     0000                     	;# 
    77     0001                     	;# 
    78     0002                     	;# 
    79     0003                     	;# 
    80     0004                     	;# 
    81     0005                     	;# 
    82     0006                     	;# 
    83     0007                     	;# 
    84     0008                     	;# 
    85     0009                     	;# 
    86     000A                     	;# 
    87     000B                     	;# 
    88     000C                     	;# 
    89     000D                     	;# 
    90     000E                     	;# 
    91     000E                     	;# 
    92     000F                     	;# 
    93     0010                     	;# 
    94     0011                     	;# 
    95     0012                     	;# 
    96     0013                     	;# 
    97     0014                     	;# 
    98     0015                     	;# 
    99     0015                     	;# 
   100     0016                     	;# 
   101     0017                     	;# 
   102     0018                     	;# 
   103     0019                     	;# 
   104     001A                     	;# 
   105     001B                     	;# 
   106     001B                     	;# 
   107     001C                     	;# 
   108     001D                     	;# 
   109     001E                     	;# 
   110     001F                     	;# 
   111     0081                     	;# 
   112     0085                     	;# 
   113     0086                     	;# 
   114     0087                     	;# 
   115     0088                     	;# 
   116     0089                     	;# 
   117     008C                     	;# 
   118     008D                     	;# 
   119     008E                     	;# 
   120     008F                     	;# 
   121     0090                     	;# 
   122     0091                     	;# 
   123     0092                     	;# 
   124     0093                     	;# 
   125     0093                     	;# 
   126     0093                     	;# 
   127     0094                     	;# 
   128     0095                     	;# 
   129     0096                     	;# 
   130     0097                     	;# 
   131     0098                     	;# 
   132     0099                     	;# 
   133     009A                     	;# 
   134     009B                     	;# 
   135     009C                     	;# 
   136     009D                     	;# 
   137     009E                     	;# 
   138     009F                     	;# 
   139     0105                     	;# 
   140     0107                     	;# 
   141     0108                     	;# 
   142     0109                     	;# 
   143     010C                     	;# 
   144     010C                     	;# 
   145     010D                     	;# 
   146     010E                     	;# 
   147     010F                     	;# 
   148     0185                     	;# 
   149     0187                     	;# 
   150     0188                     	;# 
   151     0189                     	;# 
   152     018C                     	;# 
   153     018D                     	;# 
   154     0000                     	;# 
   155     0001                     	;# 
   156     0002                     	;# 
   157     0003                     	;# 
   158     0004                     	;# 
   159     0005                     	;# 
   160     0006                     	;# 
   161     0007                     	;# 
   162     0008                     	;# 
   163     0009                     	;# 
   164     000A                     	;# 
   165     000B                     	;# 
   166     000C                     	;# 
   167     000D                     	;# 
   168     000E                     	;# 
   169     000E                     	;# 
   170     000F                     	;# 
   171     0010                     	;# 
   172     0011                     	;# 
   173     0012                     	;# 
   174     0013                     	;# 
   175     0014                     	;# 
   176     0015                     	;# 
   177     0015                     	;# 
   178     0016                     	;# 
   179     0017                     	;# 
   180     0018                     	;# 
   181     0019                     	;# 
   182     001A                     	;# 
   183     001B                     	;# 
   184     001B                     	;# 
   185     001C                     	;# 
   186     001D                     	;# 
   187     001E                     	;# 
   188     001F                     	;# 
   189     0081                     	;# 
   190     0085                     	;# 
   191     0086                     	;# 
   192     0087                     	;# 
   193     0088                     	;# 
   194     0089                     	;# 
   195     008C                     	;# 
   196     008D                     	;# 
   197     008E                     	;# 
   198     008F                     	;# 
   199     0090                     	;# 
   200     0091                     	;# 
   201     0092                     	;# 
   202     0093                     	;# 
   203     0093                     	;# 
   204     0093                     	;# 
   205     0094                     	;# 
   206     0095                     	;# 
   207     0096                     	;# 
   208     0097                     	;# 
   209     0098                     	;# 
   210     0099                     	;# 
   211     009A                     	;# 
   212     009B                     	;# 
   213     009C                     	;# 
   214     009D                     	;# 
   215     009E                     	;# 
   216     009F                     	;# 
   217     0105                     	;# 
   218     0107                     	;# 
   219     0108                     	;# 
   220     0109                     	;# 
   221     010C                     	;# 
   222     010C                     	;# 
   223     010D                     	;# 
   224     010E                     	;# 
   225     010F                     	;# 
   226     0185                     	;# 
   227     0187                     	;# 
   228     0188                     	;# 
   229     0189                     	;# 
   230     018C                     	;# 
   231     018D                     	;# 
   232     0000                     	;# 
   233     0001                     	;# 
   234     0002                     	;# 
   235     0003                     	;# 
   236     0004                     	;# 
   237     0005                     	;# 
   238     0006                     	;# 
   239     0007                     	;# 
   240     0008                     	;# 
   241     0009                     	;# 
   242     000A                     	;# 
   243     000B                     	;# 
   244     000C                     	;# 
   245     000D                     	;# 
   246     000E                     	;# 
   247     000E                     	;# 
   248     000F                     	;# 
   249     0010                     	;# 
   250     0011                     	;# 
   251     0012                     	;# 
   252     0013                     	;# 
   253     0014                     	;# 
   254     0015                     	;# 
   255     0015                     	;# 
   256     0016                     	;# 
   257     0017                     	;# 
   258     0018                     	;# 
   259     0019                     	;# 
   260     001A                     	;# 
   261     001B                     	;# 
   262     001B                     	;# 
   263     001C                     	;# 
   264     001D                     	;# 
   265     001E                     	;# 
   266     001F                     	;# 
   267     0081                     	;# 
   268     0085                     	;# 
   269     0086                     	;# 
   270     0087                     	;# 
   271     0088                     	;# 
   272     0089                     	;# 
   273     008C                     	;# 
   274     008D                     	;# 
   275     008E                     	;# 
   276     008F                     	;# 
   277     0090                     	;# 
   278     0091                     	;# 
   279     0092                     	;# 
   280     0093                     	;# 
   281     0093                     	;# 
   282     0093                     	;# 
   283     0094                     	;# 
   284     0095                     	;# 
   285     0096                     	;# 
   286     0097                     	;# 
   287     0098                     	;# 
   288     0099                     	;# 
   289     009A                     	;# 
   290     009B                     	;# 
   291     009C                     	;# 
   292     009D                     	;# 
   293     009E                     	;# 
   294     009F                     	;# 
   295     0105                     	;# 
   296     0107                     	;# 
   297     0108                     	;# 
   298     0109                     	;# 
   299     010C                     	;# 
   300     010C                     	;# 
   301     010D                     	;# 
   302     010E                     	;# 
   303     010F                     	;# 
   304     0185                     	;# 
   305     0187                     	;# 
   306     0188                     	;# 
   307     0189                     	;# 
   308     018C                     	;# 
   309     018D                     	;# 
   310     0000                     	;# 
   311     0001                     	;# 
   312     0002                     	;# 
   313     0003                     	;# 
   314     0004                     	;# 
   315     0005                     	;# 
   316     0006                     	;# 
   317     0007                     	;# 
   318     0008                     	;# 
   319     0009                     	;# 
   320     000A                     	;# 
   321     000B                     	;# 
   322     000C                     	;# 
   323     000D                     	;# 
   324     000E                     	;# 
   325     000E                     	;# 
   326     000F                     	;# 
   327     0010                     	;# 
   328     0011                     	;# 
   329     0012                     	;# 
   330     0013                     	;# 
   331     0014                     	;# 
   332     0015                     	;# 
   333     0015                     	;# 
   334     0016                     	;# 
   335     0017                     	;# 
   336     0018                     	;# 
   337     0019                     	;# 
   338     001A                     	;# 
   339     001B                     	;# 
   340     001B                     	;# 
   341     001C                     	;# 
   342     001D                     	;# 
   343     001E                     	;# 
   344     001F                     	;# 
   345     0081                     	;# 
   346     0085                     	;# 
   347     0086                     	;# 
   348     0087                     	;# 
   349     0088                     	;# 
   350     0089                     	;# 
   351     008C                     	;# 
   352     008D                     	;# 
   353     008E                     	;# 
   354     008F                     	;# 
   355     0090                     	;# 
   356     0091                     	;# 
   357     0092                     	;# 
   358     0093                     	;# 
   359     0093                     	;# 
   360     0093                     	;# 
   361     0094                     	;# 
   362     0095                     	;# 
   363     0096                     	;# 
   364     0097                     	;# 
   365     0098                     	;# 
   366     0099                     	;# 
   367     009A                     	;# 
   368     009B                     	;# 
   369     009C                     	;# 
   370     009D                     	;# 
   371     009E                     	;# 
   372     009F                     	;# 
   373     0105                     	;# 
   374     0107                     	;# 
   375     0108                     	;# 
   376     0109                     	;# 
   377     010C                     	;# 
   378     010C                     	;# 
   379     010D                     	;# 
   380     010E                     	;# 
   381     010F                     	;# 
   382     0185                     	;# 
   383     0187                     	;# 
   384     0188                     	;# 
   385     0189                     	;# 
   386     018C                     	;# 
   387     018D                     	;# 
   388     0000                     	;# 
   389     0001                     	;# 
   390     0002                     	;# 
   391     0003                     	;# 
   392     0004                     	;# 
   393     0005                     	;# 
   394     0006                     	;# 
   395     0007                     	;# 
   396     0008                     	;# 
   397     0009                     	;# 
   398     000A                     	;# 
   399     000B                     	;# 
   400     000C                     	;# 
   401     000D                     	;# 
   402     000E                     	;# 
   403     000E                     	;# 
   404     000F                     	;# 
   405     0010                     	;# 
   406     0011                     	;# 
   407     0012                     	;# 
   408     0013                     	;# 
   409     0014                     	;# 
   410     0015                     	;# 
   411     0015                     	;# 
   412     0016                     	;# 
   413     0017                     	;# 
   414     0018                     	;# 
   415     0019                     	;# 
   416     001A                     	;# 
   417     001B                     	;# 
   418     001B                     	;# 
   419     001C                     	;# 
   420     001D                     	;# 
   421     001E                     	;# 
   422     001F                     	;# 
   423     0081                     	;# 
   424     0085                     	;# 
   425     0086                     	;# 
   426     0087                     	;# 
   427     0088                     	;# 
   428     0089                     	;# 
   429     008C                     	;# 
   430     008D                     	;# 
   431     008E                     	;# 
   432     008F                     	;# 
   433     0090                     	;# 
   434     0091                     	;# 
   435     0092                     	;# 
   436     0093                     	;# 
   437     0093                     	;# 
   438     0093                     	;# 
   439     0094                     	;# 
   440     0095                     	;# 
   441     0096                     	;# 
   442     0097                     	;# 
   443     0098                     	;# 
   444     0099                     	;# 
   445     009A                     	;# 
   446     009B                     	;# 
   447     009C                     	;# 
   448     009D                     	;# 
   449     009E                     	;# 
   450     009F                     	;# 
   451     0105                     	;# 
   452     0107                     	;# 
   453     0108                     	;# 
   454     0109                     	;# 
   455     010C                     	;# 
   456     010C                     	;# 
   457     010D                     	;# 
   458     010E                     	;# 
   459     010F                     	;# 
   460     0185                     	;# 
   461     0187                     	;# 
   462     0188                     	;# 
   463     0189                     	;# 
   464     018C                     	;# 
   465     018D                     	;# 
   466     0000                     	;# 
   467     0001                     	;# 
   468     0002                     	;# 
   469     0003                     	;# 
   470     0004                     	;# 
   471     0005                     	;# 
   472     0006                     	;# 
   473     0007                     	;# 
   474     0008                     	;# 
   475     0009                     	;# 
   476     000A                     	;# 
   477     000B                     	;# 
   478     000C                     	;# 
   479     000D                     	;# 
   480     000E                     	;# 
   481     000E                     	;# 
   482     000F                     	;# 
   483     0010                     	;# 
   484     0011                     	;# 
   485     0012                     	;# 
   486     0013                     	;# 
   487     0014                     	;# 
   488     0015                     	;# 
   489     0015                     	;# 
   490     0016                     	;# 
   491     0017                     	;# 
   492     0018                     	;# 
   493     0019                     	;# 
   494     001A                     	;# 
   495     001B                     	;# 
   496     001B                     	;# 
   497     001C                     	;# 
   498     001D                     	;# 
   499     001E                     	;# 
   500     001F                     	;# 
   501     0081                     	;# 
   502     0085                     	;# 
   503     0086                     	;# 
   504     0087                     	;# 
   505     0088                     	;# 
   506     0089                     	;# 
   507     008C                     	;# 
   508     008D                     	;# 
   509     008E                     	;# 
   510     008F                     	;# 
   511     0090                     	;# 
   512     0091                     	;# 
   513     0092                     	;# 
   514     0093                     	;# 
   515     0093                     	;# 
   516     0093                     	;# 
   517     0094                     	;# 
   518     0095                     	;# 
   519     0096                     	;# 
   520     0097                     	;# 
   521     0098                     	;# 
   522     0099                     	;# 
   523     009A                     	;# 
   524     009B                     	;# 
   525     009C                     	;# 
   526     009D                     	;# 
   527     009E                     	;# 
   528     009F                     	;# 
   529     0105                     	;# 
   530     0107                     	;# 
   531     0108                     	;# 
   532     0109                     	;# 
   533     010C                     	;# 
   534     010C                     	;# 
   535     010D                     	;# 
   536     010E                     	;# 
   537     010F                     	;# 
   538     0185                     	;# 
   539     0187                     	;# 
   540     0188                     	;# 
   541     0189                     	;# 
   542     018C                     	;# 
   543     018D                     	;# 
   544     0000                     	;# 
   545     0001                     	;# 
   546     0002                     	;# 
   547     0003                     	;# 
   548     0004                     	;# 
   549     0005                     	;# 
   550     0006                     	;# 
   551     0007                     	;# 
   552     0008                     	;# 
   553     0009                     	;# 
   554     000A                     	;# 
   555     000B                     	;# 
   556     000C                     	;# 
   557     000D                     	;# 
   558     000E                     	;# 
   559     000E                     	;# 
   560     000F                     	;# 
   561     0010                     	;# 
   562     0011                     	;# 
   563     0012                     	;# 
   564     0013                     	;# 
   565     0014                     	;# 
   566     0015                     	;# 
   567     0015                     	;# 
   568     0016                     	;# 
   569     0017                     	;# 
   570     0018                     	;# 
   571     0019                     	;# 
   572     001A                     	;# 
   573     001B                     	;# 
   574     001B                     	;# 
   575     001C                     	;# 
   576     001D                     	;# 
   577     001E                     	;# 
   578     001F                     	;# 
   579     0081                     	;# 
   580     0085                     	;# 
   581     0086                     	;# 
   582     0087                     	;# 
   583     0088                     	;# 
   584     0089                     	;# 
   585     008C                     	;# 
   586     008D                     	;# 
   587     008E                     	;# 
   588     008F                     	;# 
   589     0090                     	;# 
   590     0091                     	;# 
   591     0092                     	;# 
   592     0093                     	;# 
   593     0093                     	;# 
   594     0093                     	;# 
   595     0094                     	;# 
   596     0095                     	;# 
   597     0096                     	;# 
   598     0097                     	;# 
   599     0098                     	;# 
   600     0099                     	;# 
   601     009A                     	;# 
   602     009B                     	;# 
   603     009C                     	;# 
   604     009D                     	;# 
   605     009E                     	;# 
   606     009F                     	;# 
   607     0105                     	;# 
   608     0107                     	;# 
   609     0108                     	;# 
   610     0109                     	;# 
   611     010C                     	;# 
   612     010C                     	;# 
   613     010D                     	;# 
   614     010E                     	;# 
   615     010F                     	;# 
   616     0185                     	;# 
   617     0187                     	;# 
   618     0188                     	;# 
   619     0189                     	;# 
   620     018C                     	;# 
   621     018D                     	;# 
   622     0000                     	;# 
   623     0001                     	;# 
   624     0002                     	;# 
   625     0003                     	;# 
   626     0004                     	;# 
   627     0005                     	;# 
   628     0006                     	;# 
   629     0007                     	;# 
   630     0008                     	;# 
   631     0009                     	;# 
   632     000A                     	;# 
   633     000B                     	;# 
   634     000C                     	;# 
   635     000D                     	;# 
   636     000E                     	;# 
   637     000E                     	;# 
   638     000F                     	;# 
   639     0010                     	;# 
   640     0011                     	;# 
   641     0012                     	;# 
   642     0013                     	;# 
   643     0014                     	;# 
   644     0015                     	;# 
   645     0015                     	;# 
   646     0016                     	;# 
   647     0017                     	;# 
   648     0018                     	;# 
   649     0019                     	;# 
   650     001A                     	;# 
   651     001B                     	;# 
   652     001B                     	;# 
   653     001C                     	;# 
   654     001D                     	;# 
   655     001E                     	;# 
   656     001F                     	;# 
   657     0081                     	;# 
   658     0085                     	;# 
   659     0086                     	;# 
   660     0087                     	;# 
   661     0088                     	;# 
   662     0089                     	;# 
   663     008C                     	;# 
   664     008D                     	;# 
   665     008E                     	;# 
   666     008F                     	;# 
   667     0090                     	;# 
   668     0091                     	;# 
   669     0092                     	;# 
   670     0093                     	;# 
   671     0093                     	;# 
   672     0093                     	;# 
   673     0094                     	;# 
   674     0095                     	;# 
   675     0096                     	;# 
   676     0097                     	;# 
   677     0098                     	;# 
   678     0099                     	;# 
   679     009A                     	;# 
   680     009B                     	;# 
   681     009C                     	;# 
   682     009D                     	;# 
   683     009E                     	;# 
   684     009F                     	;# 
   685     0105                     	;# 
   686     0107                     	;# 
   687     0108                     	;# 
   688     0109                     	;# 
   689     010C                     	;# 
   690     010C                     	;# 
   691     010D                     	;# 
   692     010E                     	;# 
   693     010F                     	;# 
   694     0185                     	;# 
   695     0187                     	;# 
   696     0188                     	;# 
   697     0189                     	;# 
   698     018C                     	;# 
   699     018D                     	;# 
   700     0018                     _RCSTAbits	set	24
   701     001D                     _CCP2CON	set	29
   702     0012                     _T2CONbits	set	18
   703     0017                     _CCP1CON	set	23
   704     0005                     _PORTAbits	set	5
   705     001B                     _CCPR2L	set	27
   706     001D                     _CCP2CONbits	set	29
   707     0015                     _CCPR1L	set	21
   708     0017                     _CCP1CONbits	set	23
   709     001E                     _ADRESH	set	30
   710     001F                     _ADCON0bits	set	31
   711     001A                     _RCREG	set	26
   712     0008                     _PORTD	set	8
   713     0007                     _PORTC	set	7
   714     000C                     _PIR1bits	set	12
   715     0008                     _PORTDbits	set	8
   716     0006                     _PORTBbits	set	6
   717     0007                     _PORTCbits	set	7
   718     0001                     _TMR0	set	1
   719     000B                     _INTCONbits	set	11
   720     0092                     _TMR2ON	set	146
   721     0061                     _TMR2IF	set	97
   722     0066                     _ADIF	set	102
   723     0065                     _RCIF	set	101
   724     0098                     _TXSTAbits	set	152
   725     009A                     _SPBRGH	set	154
   726     0099                     _SPBRG	set	153
   727     0092                     _PR2	set	146
   728     0087                     _TRISCbits	set	135
   729     009F                     _ADCON1bits	set	159
   730     0085                     _TRISAbits	set	133
   731     008F                     _OSCCONbits	set	143
   732     0081                     _OPTION_REGbits	set	129
   733     0095                     _WPUB	set	149
   734     0096                     _IOCB	set	150
   735     0086                     _TRISB	set	134
   736     0088                     _TRISD	set	136
   737     0087                     _TRISC	set	135
   738     010C                     _EEDAT	set	268
   739     010D                     _EEADR	set	269
   740     018D                     _EECON2	set	397
   741     018C                     _EECON1bits	set	396
   742     0187                     _BAUDCTLbits	set	391
   743     0188                     _ANSELbits	set	392
   744     0189                     _ANSELH	set	393
   745     0C60                     _RD	set	3168
   746     0C61                     _WR	set	3169
   747                           
   748                           	psect	cinit
   749     0013                     start_initialization:	
   750                           ; #config settings
   751                           
   752     0013                     __initialization:
   753                           
   754                           ; Clear objects allocated to COMMON
   755     0013  01F0               	clrf	__pbssCOMMON& (0+127)
   756     0014  01F1               	clrf	(__pbssCOMMON+1)& (0+127)
   757     0015  01F2               	clrf	(__pbssCOMMON+2)& (0+127)
   758     0016  01F3               	clrf	(__pbssCOMMON+3)& (0+127)
   759     0017  01F4               	clrf	(__pbssCOMMON+4)& (0+127)
   760     0018  01F5               	clrf	(__pbssCOMMON+5)& (0+127)
   761                           
   762                           ; Clear objects allocated to BANK0
   763     0019  1383               	bcf	3,7	;select IRP bank0
   764     001A  303F               	movlw	low __pbssBANK0
   765     001B  0084               	movwf	4
   766     001C  3050               	movlw	low (__pbssBANK0+17)
   767     001D  120A  118A  27F7  120A  118A  	fcall	clear_ram0
   768     0022                     end_of_initialization:	
   769                           ;End of C runtime variable initialization code
   770                           
   771     0022                     __end_of__initialization:
   772     0022  0183               	clrf	3
   773     0023  120A  118A  2BCC   	ljmp	_main	;jump to C main() function
   774                           
   775                           	psect	bssCOMMON
   776     0070                     __pbssCOMMON:
   777     0070                     _pos:
   778     0070                     	ds	2
   779     0072                     _modo:
   780     0072                     	ds	2
   781     0074                     _HIGHpulse0:
   782     0074                     	ds	2
   783                           
   784                           	psect	bssBANK0
   785     003F                     __pbssBANK0:
   786     003F                     _B4Flag:
   787     003F                     	ds	2
   788     0041                     _cont:
   789     0041                     	ds	2
   790     0043                     _HIGHpulse1:
   791     0043                     	ds	2
   792     0045                     _vPWMh:
   793     0045                     	ds	2
   794     0047                     _vPWMl:
   795     0047                     	ds	2
   796     0049                     _v2PWM:
   797     0049                     	ds	2
   798     004B                     _v1PWM:
   799     004B                     	ds	2
   800     004D                     _uni:
   801     004D                     	ds	1
   802     004E                     _cent:
   803     004E                     	ds	1
   804     004F                     _dec:
   805     004F                     	ds	1
   806                           
   807                           	psect	clrtext
   808     07F7                     clear_ram0:	
   809                           ;	Called with FSR containing the base address, and
   810                           ;	W with the last address+1
   811                           
   812     07F7  0064               	clrwdt	;clear the watchdog before getting into this loop
   813     07F8                     clrloop0:
   814     07F8  0180               	clrf	0	;clear RAM location pointed to by FSR
   815     07F9  0A84               	incf	4,f	;increment pointer
   816     07FA  0604               	xorwf	4,w	;XOR with final address
   817     07FB  1903               	btfsc	3,2	;have we reached the end yet?
   818     07FC  3400               	retlw	0	;all done for this memory range, return
   819     07FD  0604               	xorwf	4,w	;XOR again to restore value
   820     07FE  2FF8               	goto	clrloop0	;do the next byte
   821                           
   822                           	psect	cstackCOMMON
   823     0076                     __pcstackCOMMON:
   824     0076                     ?_hightime:
   825     0076                     ?_LEDmod:	
   826                           ; 1 bytes @ 0x0
   827                           
   828     0076                     ?_LEDpos:	
   829                           ; 1 bytes @ 0x0
   830                           
   831     0076                     ?_setup:	
   832                           ; 1 bytes @ 0x0
   833                           
   834     0076                     ?_setupINTOSC:	
   835                           ; 1 bytes @ 0x0
   836                           
   837     0076                     ?_setup_ADC:	
   838                           ; 1 bytes @ 0x0
   839                           
   840     0076                     ?_setupPWM:	
   841                           ; 1 bytes @ 0x0
   842                           
   843     0076                     ?_setupTMR0:	
   844                           ; 1 bytes @ 0x0
   845                           
   846     0076                     ?_setup_portb:	
   847                           ; 1 bytes @ 0x0
   848                           
   849     0076                     ?_initUART:	
   850                           ; 1 bytes @ 0x0
   851                           
   852     0076                     ?_adafruitrec:	
   853                           ; 1 bytes @ 0x0
   854                           
   855     0076                     ?_controlservos:	
   856                           ; 1 bytes @ 0x0
   857                           
   858     0076                     ?_writepos:	
   859                           ; 1 bytes @ 0x0
   860                           
   861     0076                     ?_lecpos:	
   862                           ; 1 bytes @ 0x0
   863                           
   864     0076                     ?_lecturanum:	
   865                           ; 1 bytes @ 0x0
   866                           
   867     0076                     ?_read_EEPROM:	
   868                           ; 1 bytes @ 0x0
   869                           
   870     0076                     ?_isr:	
   871                           ; 1 bytes @ 0x0
   872                           
   873     0076                     ?_main:	
   874                           ; 1 bytes @ 0x0
   875                           
   876     0076                     ?i1_LEDpos:	
   877                           ; 1 bytes @ 0x0
   878                           
   879     0076                     ??i1_LEDpos:	
   880                           ; 1 bytes @ 0x0
   881                           
   882     0076                     ?i1_LEDmod:	
   883                           ; 1 bytes @ 0x0
   884                           
   885     0076                     ??i1_LEDmod:	
   886                           ; 1 bytes @ 0x0
   887                           
   888     0076                     hightime@tdelay:	
   889                           ; 1 bytes @ 0x0
   890                           
   891                           
   892                           ; 2 bytes @ 0x0
   893     0076                     	ds	2
   894     0078                     ??_hightime:
   895     0078                     ??_isr:	
   896                           ; 1 bytes @ 0x2
   897                           
   898                           
   899                           ; 1 bytes @ 0x2
   900     0078                     	ds	4
   901                           
   902                           	psect	cstackBANK0
   903     0020                     __pcstackBANK0:
   904     0020                     ??_LEDmod:
   905     0020                     ??_LEDpos:	
   906                           ; 1 bytes @ 0x0
   907                           
   908     0020                     ??_setup:	
   909                           ; 1 bytes @ 0x0
   910                           
   911     0020                     ??_setupINTOSC:	
   912                           ; 1 bytes @ 0x0
   913                           
   914     0020                     ??_setup_ADC:	
   915                           ; 1 bytes @ 0x0
   916                           
   917     0020                     ??_setupPWM:	
   918                           ; 1 bytes @ 0x0
   919                           
   920     0020                     ??_setupTMR0:	
   921                           ; 1 bytes @ 0x0
   922                           
   923     0020                     ??_setup_portb:	
   924                           ; 1 bytes @ 0x0
   925                           
   926     0020                     ??_initUART:	
   927                           ; 1 bytes @ 0x0
   928                           
   929     0020                     ??_lecturanum:	
   930                           ; 1 bytes @ 0x0
   931                           
   932     0020                     ?_write_EEPROM:	
   933                           ; 1 bytes @ 0x0
   934                           
   935     0020                     ??_read_EEPROM:	
   936                           ; 1 bytes @ 0x0
   937                           
   938     0020                     ?_chartoint:	
   939                           ; 1 bytes @ 0x0
   940                           
   941     0020                     ?___wmul:	
   942                           ; 2 bytes @ 0x0
   943                           
   944     0020                     setupINTOSC@IRCF:	
   945                           ; 2 bytes @ 0x0
   946                           
   947     0020                     write_EEPROM@data:	
   948                           ; 1 bytes @ 0x0
   949                           
   950     0020                     read_EEPROM@address:	
   951                           ; 1 bytes @ 0x0
   952                           
   953     0020                     ___wmul@multiplier:	
   954                           ; 1 bytes @ 0x0
   955                           
   956                           
   957                           ; 2 bytes @ 0x0
   958     0020                     	ds	1
   959     0021                     ??_lecpos:
   960     0021                     ??_write_EEPROM:	
   961                           ; 1 bytes @ 0x1
   962                           
   963     0021                     write_EEPROM@address:	
   964                           ; 1 bytes @ 0x1
   965                           
   966                           
   967                           ; 1 bytes @ 0x1
   968     0021                     	ds	1
   969     0022                     ??_writepos:
   970     0022                     ??_chartoint:	
   971                           ; 1 bytes @ 0x2
   972                           
   973     0022                     chartoint@num:	
   974                           ; 1 bytes @ 0x2
   975                           
   976     0022                     writepos@addr:	
   977                           ; 1 bytes @ 0x2
   978                           
   979     0022                     ___wmul@multiplicand:	
   980                           ; 2 bytes @ 0x2
   981                           
   982                           
   983                           ; 2 bytes @ 0x2
   984     0022                     	ds	1
   985     0023                     lecpos@addr:
   986                           
   987                           ; 2 bytes @ 0x3
   988     0023                     	ds	1
   989     0024                     ??___wmul:
   990     0024                     ___wmul@product:	
   991                           ; 1 bytes @ 0x4
   992                           
   993                           
   994                           ; 2 bytes @ 0x4
   995     0024                     	ds	2
   996     0026                     ?_convint:
   997     0026                     ?___awdiv:	
   998                           ; 2 bytes @ 0x6
   999                           
  1000     0026                     convint@decenas:	
  1001                           ; 2 bytes @ 0x6
  1002                           
  1003     0026                     ___awdiv@divisor:	
  1004                           ; 1 bytes @ 0x6
  1005                           
  1006                           
  1007                           ; 2 bytes @ 0x6
  1008     0026                     	ds	1
  1009     0027                     convint@unidades:
  1010                           
  1011                           ; 1 bytes @ 0x7
  1012     0027                     	ds	1
  1013     0028                     ??_convint:
  1014     0028                     ___awdiv@dividend:	
  1015                           ; 1 bytes @ 0x8
  1016                           
  1017                           
  1018                           ; 2 bytes @ 0x8
  1019     0028                     	ds	2
  1020     002A                     ??___awdiv:
  1021                           
  1022                           ; 1 bytes @ 0xA
  1023     002A                     	ds	1
  1024     002B                     ___awdiv@counter:
  1025                           
  1026                           ; 1 bytes @ 0xB
  1027     002B                     	ds	1
  1028     002C                     convint@centenas:
  1029     002C                     ___awdiv@sign:	
  1030                           ; 1 bytes @ 0xC
  1031                           
  1032                           
  1033                           ; 1 bytes @ 0xC
  1034     002C                     	ds	1
  1035     002D                     convint@u:
  1036     002D                     ___awdiv@quotient:	
  1037                           ; 2 bytes @ 0xD
  1038                           
  1039                           
  1040                           ; 2 bytes @ 0xD
  1041     002D                     	ds	2
  1042     002F                     ?_mapeo:
  1043     002F                     convint@d:	
  1044                           ; 2 bytes @ 0xF
  1045                           
  1046     002F                     mapeo@valor:	
  1047                           ; 2 bytes @ 0xF
  1048                           
  1049                           
  1050                           ; 2 bytes @ 0xF
  1051     002F                     	ds	2
  1052     0031                     convint@c:
  1053     0031                     mapeo@inmin:	
  1054                           ; 2 bytes @ 0x11
  1055                           
  1056                           
  1057                           ; 2 bytes @ 0x11
  1058     0031                     	ds	2
  1059     0033                     mapeo@inmax:
  1060                           
  1061                           ; 2 bytes @ 0x13
  1062     0033                     	ds	2
  1063     0035                     mapeo@outmin:
  1064                           
  1065                           ; 2 bytes @ 0x15
  1066     0035                     	ds	2
  1067     0037                     mapeo@outmax:
  1068                           
  1069                           ; 2 bytes @ 0x17
  1070     0037                     	ds	2
  1071     0039                     ??_mapeo:
  1072     0039                     mapeo@resultado:	
  1073                           ; 1 bytes @ 0x19
  1074                           
  1075                           
  1076                           ; 2 bytes @ 0x19
  1077     0039                     	ds	2
  1078     003B                     ??_adafruitrec:
  1079     003B                     ??_controlservos:	
  1080                           ; 1 bytes @ 0x1B
  1081                           
  1082                           
  1083                           ; 1 bytes @ 0x1B
  1084     003B                     	ds	3
  1085     003E                     ??_main:
  1086                           
  1087                           ; 1 bytes @ 0x1E
  1088     003E                     	ds	1
  1089                           
  1090                           	psect	maintext
  1091     03CC                     __pmaintext:	
  1092 ;;
  1093 ;;Main: autosize = 0, tempsize = 1, incstack = 0, save=0
  1094 ;;
  1095 ;; *************** function _main *****************
  1096 ;; Defined at:
  1097 ;;		line 146 in file "main.c"
  1098 ;; Parameters:    Size  Location     Type
  1099 ;;		None
  1100 ;; Auto vars:     Size  Location     Type
  1101 ;;		None
  1102 ;; Return value:  Size  Location     Type
  1103 ;;                  1    wreg      void 
  1104 ;; Registers used:
  1105 ;;		wreg, fsr0l, fsr0h, status,2, status,0, btemp+1, pclath, cstack
  1106 ;; Tracked objects:
  1107 ;;		On entry : B00/0
  1108 ;;		On exit  : 0/0
  1109 ;;		Unchanged: 0/0
  1110 ;; Data sizes:     COMMON   BANK0   BANK1   BANK3   BANK2
  1111 ;;      Params:         0       0       0       0       0
  1112 ;;      Locals:         0       0       0       0       0
  1113 ;;      Temps:          0       1       0       0       0
  1114 ;;      Totals:         0       1       0       0       0
  1115 ;;Total ram usage:        1 bytes
  1116 ;; Hardware stack levels required when called: 5
  1117 ;; This function calls:
  1118 ;;		_adafruitrec
  1119 ;;		_controlservos
  1120 ;;		_initUART
  1121 ;;		_lecpos
  1122 ;;		_setup
  1123 ;;		_setupINTOSC
  1124 ;;		_setupPWM
  1125 ;;		_setupTMR0
  1126 ;;		_setup_ADC
  1127 ;;		_setup_portb
  1128 ;;		_writepos
  1129 ;; This function is called by:
  1130 ;;		Startup code after reset
  1131 ;; This function uses a non-reentrant model
  1132 ;;
  1133                           
  1134     03CC                     _main:	
  1135                           ;psect for function _main
  1136                           
  1137     03CC                     l2893:	
  1138                           ;incstack = 0
  1139                           ; Regs used in _main: [wreg-fsr0h+status,2+status,0+btemp+1+pclath+cstack]
  1140                           
  1141                           
  1142                           ;main.c: 147:     setup();
  1143     03CC  120A  158A  273B  120A  118A  	fcall	_setup
  1144                           
  1145                           ;main.c: 148:     setupINTOSC(4);
  1146     03D1  3004               	movlw	4
  1147     03D2  120A  118A  2590  120A  118A  	fcall	_setupINTOSC
  1148                           
  1149                           ;main.c: 149:     setup_ADC();
  1150     03D7  120A  118A  26B3  120A  118A  	fcall	_setup_ADC
  1151                           
  1152                           ;main.c: 150:     setupPWM();
  1153     03DC  120A  158A  27DE  120A  118A  	fcall	_setupPWM
  1154                           
  1155                           ;main.c: 151:     setupTMR0();
  1156     03E1  120A  158A  2748  120A  118A  	fcall	_setupTMR0
  1157                           
  1158                           ;main.c: 152:     setup_portb();
  1159     03E6  120A  158A  272F  120A  118A  	fcall	_setup_portb
  1160                           
  1161                           ;main.c: 153:     initUART();
  1162     03EB  120A  158A  2771  120A  118A  	fcall	_initUART
  1163     03F0                     l2895:
  1164                           
  1165                           ;main.c: 154:     pos = 1;
  1166     03F0  3001               	movlw	1
  1167     03F1  00F0               	movwf	_pos
  1168     03F2  3000               	movlw	0
  1169     03F3  00F1               	movwf	_pos+1
  1170     03F4                     l2897:
  1171                           
  1172                           ;main.c: 155:     B4Flag = 0;
  1173     03F4  1283               	bcf	3,5	;RP0=0, select bank0
  1174     03F5  1303               	bcf	3,6	;RP1=0, select bank0
  1175     03F6  01BF               	clrf	_B4Flag
  1176     03F7  01C0               	clrf	_B4Flag+1
  1177     03F8                     l2899:
  1178                           
  1179                           ;main.c: 156:     PORTDbits.RD0 = 1;
  1180     03F8  1408               	bsf	8,0	;volatile
  1181     03F9                     l2901:
  1182                           
  1183                           ;main.c: 159:         if (PIR1bits.RCIF == 1){
  1184     03F9  1283               	bcf	3,5	;RP0=0, select bank0
  1185     03FA  1303               	bcf	3,6	;RP1=0, select bank0
  1186     03FB  1E8C               	btfss	12,5	;volatile
  1187     03FC  2BFE               	goto	u2481
  1188     03FD  2BFF               	goto	u2480
  1189     03FE                     u2481:
  1190     03FE  2C04               	goto	l2905
  1191     03FF                     u2480:
  1192     03FF                     l2903:
  1193                           
  1194                           ;main.c: 160:             adafruitrec();
  1195     03FF  120A  118A  2026  120A  118A  	fcall	_adafruitrec
  1196     0404                     l2905:
  1197                           
  1198                           ;main.c: 162:         if(modo != 1){
  1199     0404  0372               	decf	_modo,w
  1200     0405  0473               	iorwf	_modo+1,w
  1201     0406  1903               	btfsc	3,2
  1202     0407  2C09               	goto	u2491
  1203     0408  2C0A               	goto	u2490
  1204     0409                     u2491:
  1205     0409  2C26               	goto	l2917
  1206     040A                     u2490:
  1207     040A                     l2907:
  1208                           
  1209                           ;main.c: 163:             controlservos();
  1210     040A  120A  118A  21CC  120A  118A  	fcall	_controlservos
  1211     040F                     l2909:
  1212                           
  1213                           ;main.c: 164:             if (B4Flag == 1){
  1214     040F  1283               	bcf	3,5	;RP0=0, select bank0
  1215     0410  1303               	bcf	3,6	;RP1=0, select bank0
  1216     0411  033F               	decf	_B4Flag,w
  1217     0412  0440               	iorwf	_B4Flag+1,w
  1218     0413  1D03               	btfss	3,2
  1219     0414  2C16               	goto	u2501
  1220     0415  2C17               	goto	u2500
  1221     0416                     u2501:
  1222     0416  2C1E               	goto	l2915
  1223     0417                     u2500:
  1224     0417                     l2911:
  1225                           
  1226                           ;main.c: 165:                 B4Flag = 0;
  1227     0417  01BF               	clrf	_B4Flag
  1228     0418  01C0               	clrf	_B4Flag+1
  1229     0419                     l2913:
  1230                           
  1231                           ;main.c: 166:                 writepos();
  1232     0419  120A  118A  25F8  120A  118A  	fcall	_writepos
  1233     041E                     l2915:
  1234                           
  1235                           ;main.c: 168:             _delay((unsigned long)((1)*(1000000/4000.0)));
  1236     041E  3052               	movlw	82
  1237     041F  1283               	bcf	3,5	;RP0=0, select bank0
  1238     0420  1303               	bcf	3,6	;RP1=0, select bank0
  1239     0421  00BE               	movwf	??_main
  1240     0422                     u2537:
  1241     0422  0BBE               	decfsz	??_main,f
  1242     0423  2C22               	goto	u2537
  1243     0424  0000               	nop
  1244                           
  1245                           ;main.c: 169:         }
  1246     0425  2BF9               	goto	l2901
  1247     0426                     l2917:
  1248     0426  0372               	decf	_modo,w
  1249     0427  0473               	iorwf	_modo+1,w
  1250     0428  1D03               	btfss	3,2
  1251     0429  2C2B               	goto	u2511
  1252     042A  2C2C               	goto	u2510
  1253     042B                     u2511:
  1254     042B  2BF9               	goto	l2901
  1255     042C                     u2510:
  1256     042C                     l2919:
  1257                           
  1258                           ;main.c: 171:             if (B4Flag == 1){
  1259     042C  1283               	bcf	3,5	;RP0=0, select bank0
  1260     042D  1303               	bcf	3,6	;RP1=0, select bank0
  1261     042E  033F               	decf	_B4Flag,w
  1262     042F  0440               	iorwf	_B4Flag+1,w
  1263     0430  1D03               	btfss	3,2
  1264     0431  2C33               	goto	u2521
  1265     0432  2C34               	goto	u2520
  1266     0433                     u2521:
  1267     0433  2C3B               	goto	l2925
  1268     0434                     u2520:
  1269     0434                     l2921:
  1270                           
  1271                           ;main.c: 172:                 B4Flag = 0;
  1272     0434  01BF               	clrf	_B4Flag
  1273     0435  01C0               	clrf	_B4Flag+1
  1274     0436                     l2923:
  1275                           
  1276                           ;main.c: 173:                 lecpos();
  1277     0436  120A  118A  2444  120A  118A  	fcall	_lecpos
  1278     043B                     l2925:
  1279                           
  1280                           ;main.c: 175:             controlservos();
  1281     043B  120A  118A  21CC  120A  118A  	fcall	_controlservos
  1282     0440  2C1E               	goto	l2915
  1283     0441  120A  118A  2810   	ljmp	start
  1284     0444                     __end_of_main:
  1285                           
  1286                           	psect	text1
  1287     0F2F                     __ptext1:	
  1288 ;; *************** function _setup_portb *****************
  1289 ;; Defined at:
  1290 ;;		line 194 in file "main.c"
  1291 ;; Parameters:    Size  Location     Type
  1292 ;;		None
  1293 ;; Auto vars:     Size  Location     Type
  1294 ;;		None
  1295 ;; Return value:  Size  Location     Type
  1296 ;;                  1    wreg      void 
  1297 ;; Registers used:
  1298 ;;		wreg
  1299 ;; Tracked objects:
  1300 ;;		On entry : 0/0
  1301 ;;		On exit  : 0/0
  1302 ;;		Unchanged: 0/0
  1303 ;; Data sizes:     COMMON   BANK0   BANK1   BANK3   BANK2
  1304 ;;      Params:         0       0       0       0       0
  1305 ;;      Locals:         0       0       0       0       0
  1306 ;;      Temps:          0       0       0       0       0
  1307 ;;      Totals:         0       0       0       0       0
  1308 ;;Total ram usage:        0 bytes
  1309 ;; Hardware stack levels used: 1
  1310 ;; Hardware stack levels required when called: 2
  1311 ;; This function calls:
  1312 ;;		Nothing
  1313 ;; This function is called by:
  1314 ;;		_main
  1315 ;; This function uses a non-reentrant model
  1316 ;;
  1317                           
  1318     0F2F                     _setup_portb:	
  1319                           ;psect for function _setup_portb
  1320                           
  1321     0F2F                     l2737:	
  1322                           ;incstack = 0
  1323                           ; Regs used in _setup_portb: [wreg]
  1324                           
  1325                           
  1326                           ;main.c: 195:     TRISB = 0b11110000;
  1327     0F2F  30F0               	movlw	240
  1328     0F30  1683               	bsf	3,5	;RP0=1, select bank1
  1329     0F31  1303               	bcf	3,6	;RP1=0, select bank1
  1330     0F32  0086               	movwf	6	;volatile
  1331     0F33                     l2739:
  1332                           
  1333                           ;main.c: 196:     INTCONbits.RBIE = 1;
  1334     0F33  158B               	bsf	11,3	;volatile
  1335     0F34                     l2741:
  1336                           
  1337                           ;main.c: 197:     INTCONbits.RBIF = 0;
  1338     0F34  100B               	bcf	11,0	;volatile
  1339                           
  1340                           ;main.c: 198:     IOCB = 0b11110000;
  1341     0F35  30F0               	movlw	240
  1342     0F36  0096               	movwf	22	;volatile
  1343                           
  1344                           ;main.c: 199:     WPUB = 0b11110000;
  1345     0F37  30F0               	movlw	240
  1346     0F38  0095               	movwf	21	;volatile
  1347     0F39                     l2743:
  1348                           
  1349                           ;main.c: 200:     OPTION_REGbits.nRBPU = 0;
  1350     0F39  1381               	bcf	1,7	;volatile
  1351     0F3A                     l163:
  1352     0F3A  0008               	return
  1353     0F3B                     __end_of_setup_portb:
  1354                           
  1355                           	psect	text2
  1356     06B3                     __ptext2:	
  1357 ;; *************** function _setup_ADC *****************
  1358 ;; Defined at:
  1359 ;;		line 11 in file "setupADC.c"
  1360 ;; Parameters:    Size  Location     Type
  1361 ;;		None
  1362 ;; Auto vars:     Size  Location     Type
  1363 ;;		None
  1364 ;; Return value:  Size  Location     Type
  1365 ;;                  1    wreg      void 
  1366 ;; Registers used:
  1367 ;;		wreg
  1368 ;; Tracked objects:
  1369 ;;		On entry : 0/0
  1370 ;;		On exit  : 0/0
  1371 ;;		Unchanged: 0/0
  1372 ;; Data sizes:     COMMON   BANK0   BANK1   BANK3   BANK2
  1373 ;;      Params:         0       0       0       0       0
  1374 ;;      Locals:         0       0       0       0       0
  1375 ;;      Temps:          0       1       0       0       0
  1376 ;;      Totals:         0       1       0       0       0
  1377 ;;Total ram usage:        1 bytes
  1378 ;; Hardware stack levels used: 1
  1379 ;; Hardware stack levels required when called: 2
  1380 ;; This function calls:
  1381 ;;		Nothing
  1382 ;; This function is called by:
  1383 ;;		_main
  1384 ;; This function uses a non-reentrant model
  1385 ;;
  1386                           
  1387     06B3                     _setup_ADC:	
  1388                           ;psect for function _setup_ADC
  1389                           
  1390     06B3                     l2711:	
  1391                           ;incstack = 0
  1392                           ; Regs used in _setup_ADC: [wreg]
  1393                           
  1394                           
  1395                           ;setupADC.c: 12:     PORTAbits.RA0 = 0;
  1396     06B3  1283               	bcf	3,5	;RP0=0, select bank0
  1397     06B4  1303               	bcf	3,6	;RP1=0, select bank0
  1398     06B5  1005               	bcf	5,0	;volatile
  1399                           
  1400                           ;setupADC.c: 13:     TRISAbits.TRISA0 = 1;
  1401     06B6  1683               	bsf	3,5	;RP0=1, select bank1
  1402     06B7  1303               	bcf	3,6	;RP1=0, select bank1
  1403     06B8  1405               	bsf	5,0	;volatile
  1404                           
  1405                           ;setupADC.c: 14:     ANSELbits.ANS0 = 1;
  1406     06B9  1683               	bsf	3,5	;RP0=1, select bank3
  1407     06BA  1703               	bsf	3,6	;RP1=1, select bank3
  1408     06BB  1408               	bsf	8,0	;volatile
  1409                           
  1410                           ;setupADC.c: 16:     PORTAbits.RA1 = 0;
  1411     06BC  1283               	bcf	3,5	;RP0=0, select bank0
  1412     06BD  1303               	bcf	3,6	;RP1=0, select bank0
  1413     06BE  1085               	bcf	5,1	;volatile
  1414                           
  1415                           ;setupADC.c: 17:     TRISAbits.TRISA1 = 1;
  1416     06BF  1683               	bsf	3,5	;RP0=1, select bank1
  1417     06C0  1303               	bcf	3,6	;RP1=0, select bank1
  1418     06C1  1485               	bsf	5,1	;volatile
  1419                           
  1420                           ;setupADC.c: 18:     ANSELbits.ANS1 = 1;
  1421     06C2  1683               	bsf	3,5	;RP0=1, select bank3
  1422     06C3  1703               	bsf	3,6	;RP1=1, select bank3
  1423     06C4  1488               	bsf	8,1	;volatile
  1424                           
  1425                           ;setupADC.c: 20:     PORTAbits.RA2 = 0;
  1426     06C5  1283               	bcf	3,5	;RP0=0, select bank0
  1427     06C6  1303               	bcf	3,6	;RP1=0, select bank0
  1428     06C7  1105               	bcf	5,2	;volatile
  1429                           
  1430                           ;setupADC.c: 21:     TRISAbits.TRISA2 = 1;
  1431     06C8  1683               	bsf	3,5	;RP0=1, select bank1
  1432     06C9  1303               	bcf	3,6	;RP1=0, select bank1
  1433     06CA  1505               	bsf	5,2	;volatile
  1434                           
  1435                           ;setupADC.c: 22:     ANSELbits.ANS2 = 1;
  1436     06CB  1683               	bsf	3,5	;RP0=1, select bank3
  1437     06CC  1703               	bsf	3,6	;RP1=1, select bank3
  1438     06CD  1508               	bsf	8,2	;volatile
  1439                           
  1440                           ;setupADC.c: 24:     PORTAbits.RA3 = 0;
  1441     06CE  1283               	bcf	3,5	;RP0=0, select bank0
  1442     06CF  1303               	bcf	3,6	;RP1=0, select bank0
  1443     06D0  1185               	bcf	5,3	;volatile
  1444                           
  1445                           ;setupADC.c: 25:     TRISAbits.TRISA3 = 1;
  1446     06D1  1683               	bsf	3,5	;RP0=1, select bank1
  1447     06D2  1303               	bcf	3,6	;RP1=0, select bank1
  1448     06D3  1585               	bsf	5,3	;volatile
  1449                           
  1450                           ;setupADC.c: 26:     ANSELbits.ANS3 = 1;
  1451     06D4  1683               	bsf	3,5	;RP0=1, select bank3
  1452     06D5  1703               	bsf	3,6	;RP1=1, select bank3
  1453     06D6  1588               	bsf	8,3	;volatile
  1454                           
  1455                           ;setupADC.c: 28:     ADCON0bits.ADCS1 = 0;
  1456     06D7  1283               	bcf	3,5	;RP0=0, select bank0
  1457     06D8  1303               	bcf	3,6	;RP1=0, select bank0
  1458     06D9  139F               	bcf	31,7	;volatile
  1459                           
  1460                           ;setupADC.c: 29:     ADCON0bits.ADCS0 = 1;
  1461     06DA  171F               	bsf	31,6	;volatile
  1462                           
  1463                           ;setupADC.c: 31:     ADCON1bits.VCFG1 = 0;
  1464     06DB  1683               	bsf	3,5	;RP0=1, select bank1
  1465     06DC  1303               	bcf	3,6	;RP1=0, select bank1
  1466     06DD  129F               	bcf	31,5	;volatile
  1467                           
  1468                           ;setupADC.c: 32:     ADCON1bits.VCFG0 = 0;
  1469     06DE  121F               	bcf	31,4	;volatile
  1470                           
  1471                           ;setupADC.c: 34:     ADCON1bits.ADFM = 0;
  1472     06DF  139F               	bcf	31,7	;volatile
  1473                           
  1474                           ;setupADC.c: 36:     ADCON0bits.ADON = 1;
  1475     06E0  1283               	bcf	3,5	;RP0=0, select bank0
  1476     06E1  1303               	bcf	3,6	;RP1=0, select bank0
  1477     06E2  141F               	bsf	31,0	;volatile
  1478     06E3                     l2713:
  1479                           
  1480                           ;setupADC.c: 37:     _delay((unsigned long)((100)*(1000000/4000000.0)));
  1481     06E3  3007               	movlw	7
  1482     06E4  1283               	bcf	3,5	;RP0=0, select bank0
  1483     06E5  1303               	bcf	3,6	;RP1=0, select bank0
  1484     06E6  00A0               	movwf	??_setup_ADC
  1485     06E7                     u2547:
  1486     06E7  0BA0               	decfsz	??_setup_ADC,f
  1487     06E8  2EE7               	goto	u2547
  1488     06E9  0000               	nop
  1489     06EA                     l307:
  1490     06EA  0008               	return
  1491     06EB                     __end_of_setup_ADC:
  1492                           
  1493                           	psect	text3
  1494     0F48                     __ptext3:	
  1495 ;; *************** function _setupTMR0 *****************
  1496 ;; Defined at:
  1497 ;;		line 205 in file "main.c"
  1498 ;; Parameters:    Size  Location     Type
  1499 ;;		None
  1500 ;; Auto vars:     Size  Location     Type
  1501 ;;		None
  1502 ;; Return value:  Size  Location     Type
  1503 ;;                  1    wreg      void 
  1504 ;; Registers used:
  1505 ;;		wreg, status,2, status,0
  1506 ;; Tracked objects:
  1507 ;;		On entry : 0/0
  1508 ;;		On exit  : 0/0
  1509 ;;		Unchanged: 0/0
  1510 ;; Data sizes:     COMMON   BANK0   BANK1   BANK3   BANK2
  1511 ;;      Params:         0       0       0       0       0
  1512 ;;      Locals:         0       0       0       0       0
  1513 ;;      Temps:          0       0       0       0       0
  1514 ;;      Totals:         0       0       0       0       0
  1515 ;;Total ram usage:        0 bytes
  1516 ;; Hardware stack levels used: 1
  1517 ;; Hardware stack levels required when called: 2
  1518 ;; This function calls:
  1519 ;;		Nothing
  1520 ;; This function is called by:
  1521 ;;		_main
  1522 ;; This function uses a non-reentrant model
  1523 ;;
  1524                           
  1525     0F48                     _setupTMR0:	
  1526                           ;psect for function _setupTMR0
  1527                           
  1528     0F48                     l2729:	
  1529                           ;incstack = 0
  1530                           ; Regs used in _setupTMR0: [wreg+status,2+status,0]
  1531                           
  1532                           
  1533                           ;main.c: 206:     INTCONbits.GIE = 1;
  1534     0F48  178B               	bsf	11,7	;volatile
  1535                           
  1536                           ;main.c: 207:     INTCONbits.T0IE = 1;
  1537     0F49  168B               	bsf	11,5	;volatile
  1538                           
  1539                           ;main.c: 208:     INTCONbits.T0IF = 0;
  1540     0F4A  110B               	bcf	11,2	;volatile
  1541                           
  1542                           ;main.c: 210:     OPTION_REGbits.T0CS = 0;
  1543     0F4B  1683               	bsf	3,5	;RP0=1, select bank1
  1544     0F4C  1303               	bcf	3,6	;RP1=0, select bank1
  1545     0F4D  1281               	bcf	1,5	;volatile
  1546                           
  1547                           ;main.c: 211:     OPTION_REGbits.PSA = 0;
  1548     0F4E  1181               	bcf	1,3	;volatile
  1549     0F4F                     l2731:
  1550                           
  1551                           ;main.c: 212:     OPTION_REGbits.PS = 0b100;
  1552     0F4F  0801               	movf	1,w	;volatile
  1553     0F50  39F8               	andlw	-8
  1554     0F51  3804               	iorlw	4
  1555     0F52  0081               	movwf	1	;volatile
  1556     0F53                     l2733:
  1557                           
  1558                           ;main.c: 213:     TMR0 = 100;
  1559     0F53  3064               	movlw	100
  1560     0F54  1283               	bcf	3,5	;RP0=0, select bank0
  1561     0F55  1303               	bcf	3,6	;RP1=0, select bank0
  1562     0F56  0081               	movwf	1	;volatile
  1563     0F57                     l2735:
  1564                           
  1565                           ;main.c: 214:     cont = 0;
  1566     0F57  01C1               	clrf	_cont
  1567     0F58  01C2               	clrf	_cont+1
  1568     0F59                     l166:
  1569     0F59  0008               	return
  1570     0F5A                     __end_of_setupTMR0:
  1571                           
  1572                           	psect	text4
  1573     0FDE                     __ptext4:	
  1574 ;; *************** function _setupPWM *****************
  1575 ;; Defined at:
  1576 ;;		line 11 in file "setupPWM.c"
  1577 ;; Parameters:    Size  Location     Type
  1578 ;;		None
  1579 ;; Auto vars:     Size  Location     Type
  1580 ;;		None
  1581 ;; Return value:  Size  Location     Type
  1582 ;;                  1    wreg      void 
  1583 ;; Registers used:
  1584 ;;		wreg, status,2, status,0
  1585 ;; Tracked objects:
  1586 ;;		On entry : 0/0
  1587 ;;		On exit  : 0/0
  1588 ;;		Unchanged: 0/0
  1589 ;; Data sizes:     COMMON   BANK0   BANK1   BANK3   BANK2
  1590 ;;      Params:         0       0       0       0       0
  1591 ;;      Locals:         0       0       0       0       0
  1592 ;;      Temps:          0       0       0       0       0
  1593 ;;      Totals:         0       0       0       0       0
  1594 ;;Total ram usage:        0 bytes
  1595 ;; Hardware stack levels used: 1
  1596 ;; Hardware stack levels required when called: 2
  1597 ;; This function calls:
  1598 ;;		Nothing
  1599 ;; This function is called by:
  1600 ;;		_main
  1601 ;; This function uses a non-reentrant model
  1602 ;;
  1603                           
  1604     0FDE                     _setupPWM:	
  1605                           ;psect for function _setupPWM
  1606                           
  1607     0FDE                     l2715:	
  1608                           ;incstack = 0
  1609                           ; Regs used in _setupPWM: [wreg+status,2+status,0]
  1610                           
  1611                           
  1612                           ;setupPWM.c: 13:     TRISCbits.TRISC2 = 1;
  1613     0FDE  1683               	bsf	3,5	;RP0=1, select bank1
  1614     0FDF  1303               	bcf	3,6	;RP1=0, select bank1
  1615     0FE0  1507               	bsf	7,2	;volatile
  1616     0FE1                     l2717:
  1617                           
  1618                           ;setupPWM.c: 14:     PR2 = 254;
  1619     0FE1  30FE               	movlw	254
  1620     0FE2  0092               	movwf	18	;volatile
  1621                           
  1622                           ;setupPWM.c: 15:     CCP1CON = 0b00001100;
  1623     0FE3  300C               	movlw	12
  1624     0FE4  1283               	bcf	3,5	;RP0=0, select bank0
  1625     0FE5  1303               	bcf	3,6	;RP1=0, select bank0
  1626     0FE6  0097               	movwf	23	;volatile
  1627     0FE7                     l2719:
  1628                           
  1629                           ;setupPWM.c: 16:     TMR2IF = 0;
  1630     0FE7  108C               	bcf	12,1	;volatile
  1631     0FE8                     l2721:
  1632                           
  1633                           ;setupPWM.c: 17:     T2CONbits.T2CKPS = 0b11;
  1634     0FE8  3003               	movlw	3
  1635     0FE9  0492               	iorwf	18,f	;volatile
  1636     0FEA                     l2723:
  1637                           
  1638                           ;setupPWM.c: 18:     TMR2ON = 1;
  1639     0FEA  1512               	bsf	18,2	;volatile
  1640     0FEB                     l324:	
  1641                           ;setupPWM.c: 19:     while(!TMR2IF);
  1642                           
  1643     0FEB  1C8C               	btfss	12,1	;volatile
  1644     0FEC  2FEE               	goto	u2211
  1645     0FED  2FEF               	goto	u2210
  1646     0FEE                     u2211:
  1647     0FEE  2FEB               	goto	l324
  1648     0FEF                     u2210:
  1649     0FEF                     l326:
  1650                           
  1651                           ;setupPWM.c: 20:     TRISCbits.TRISC2 = 0;
  1652     0FEF  1683               	bsf	3,5	;RP0=1, select bank1
  1653     0FF0  1303               	bcf	3,6	;RP1=0, select bank1
  1654     0FF1  1107               	bcf	7,2	;volatile
  1655                           
  1656                           ;setupPWM.c: 23:     TRISCbits.TRISC1 = 1;
  1657     0FF2  1487               	bsf	7,1	;volatile
  1658     0FF3                     l2725:
  1659                           
  1660                           ;setupPWM.c: 24:     CCP2CON = 0b00001100;
  1661     0FF3  300C               	movlw	12
  1662     0FF4  1283               	bcf	3,5	;RP0=0, select bank0
  1663     0FF5  1303               	bcf	3,6	;RP1=0, select bank0
  1664     0FF6  009D               	movwf	29	;volatile
  1665     0FF7                     l2727:
  1666                           
  1667                           ;setupPWM.c: 25:     TMR2IF = 0;
  1668     0FF7  108C               	bcf	12,1	;volatile
  1669     0FF8                     l327:	
  1670                           ;setupPWM.c: 26:     while(!TMR2IF);
  1671                           
  1672     0FF8  1C8C               	btfss	12,1	;volatile
  1673     0FF9  2FFB               	goto	u2221
  1674     0FFA  2FFC               	goto	u2220
  1675     0FFB                     u2221:
  1676     0FFB  2FF8               	goto	l327
  1677     0FFC                     u2220:
  1678     0FFC                     l329:
  1679                           
  1680                           ;setupPWM.c: 27:     TRISCbits.TRISC1 = 0;
  1681     0FFC  1683               	bsf	3,5	;RP0=1, select bank1
  1682     0FFD  1303               	bcf	3,6	;RP1=0, select bank1
  1683     0FFE  1087               	bcf	7,1	;volatile
  1684     0FFF                     l330:
  1685     0FFF  0008               	return
  1686     1000                     __end_of_setupPWM:
  1687                           
  1688                           	psect	text5
  1689     0590                     __ptext5:	
  1690 ;; *************** function _setupINTOSC *****************
  1691 ;; Defined at:
  1692 ;;		line 10 in file "oscilador.c"
  1693 ;; Parameters:    Size  Location     Type
  1694 ;;  IRCF            1    wreg     unsigned char 
  1695 ;; Auto vars:     Size  Location     Type
  1696 ;;  IRCF            1    0[BANK0 ] unsigned char 
  1697 ;; Return value:  Size  Location     Type
  1698 ;;                  1    wreg      void 
  1699 ;; Registers used:
  1700 ;;		wreg, status,2, status,0
  1701 ;; Tracked objects:
  1702 ;;		On entry : 0/0
  1703 ;;		On exit  : 0/0
  1704 ;;		Unchanged: 0/0
  1705 ;; Data sizes:     COMMON   BANK0   BANK1   BANK3   BANK2
  1706 ;;      Params:         0       0       0       0       0
  1707 ;;      Locals:         0       1       0       0       0
  1708 ;;      Temps:          0       0       0       0       0
  1709 ;;      Totals:         0       1       0       0       0
  1710 ;;Total ram usage:        1 bytes
  1711 ;; Hardware stack levels used: 1
  1712 ;; Hardware stack levels required when called: 2
  1713 ;; This function calls:
  1714 ;;		Nothing
  1715 ;; This function is called by:
  1716 ;;		_main
  1717 ;; This function uses a non-reentrant model
  1718 ;;
  1719                           
  1720     0590                     _setupINTOSC:	
  1721                           ;psect for function _setupINTOSC
  1722                           
  1723                           
  1724                           ;incstack = 0
  1725                           ; Regs used in _setupINTOSC: [wreg+status,2+status,0]
  1726                           ;setupINTOSC@IRCF stored from wreg
  1727     0590  1283               	bcf	3,5	;RP0=0, select bank0
  1728     0591  1303               	bcf	3,6	;RP1=0, select bank0
  1729     0592  00A0               	movwf	setupINTOSC@IRCF
  1730     0593                     l2691:
  1731                           
  1732                           ;oscilador.c: 11:     if (IRCF == 7){
  1733     0593  3007               	movlw	7
  1734     0594  0620               	xorwf	setupINTOSC@IRCF,w
  1735     0595  1D03               	btfss	3,2
  1736     0596  2D98               	goto	u2131
  1737     0597  2D99               	goto	u2130
  1738     0598                     u2131:
  1739     0598  2D9D               	goto	l284
  1740     0599                     u2130:
  1741     0599                     l2693:
  1742                           
  1743                           ;oscilador.c: 12:         OSCCONbits.IRCF = 0b111;
  1744     0599  3070               	movlw	112
  1745     059A  1683               	bsf	3,5	;RP0=1, select bank1
  1746     059B  1303               	bcf	3,6	;RP1=0, select bank1
  1747     059C  048F               	iorwf	15,f	;volatile
  1748     059D                     l284:	
  1749                           ;oscilador.c: 13:     }
  1750                           
  1751                           
  1752                           ;oscilador.c: 14:     if (IRCF == 6){
  1753     059D  3006               	movlw	6
  1754     059E  1283               	bcf	3,5	;RP0=0, select bank0
  1755     059F  0620               	xorwf	setupINTOSC@IRCF,w
  1756     05A0  1D03               	btfss	3,2
  1757     05A1  2DA3               	goto	u2141
  1758     05A2  2DA4               	goto	u2140
  1759     05A3                     u2141:
  1760     05A3  2DAA               	goto	l285
  1761     05A4                     u2140:
  1762     05A4                     l2695:
  1763                           
  1764                           ;oscilador.c: 15:         OSCCONbits.IRCF = 0b110;
  1765     05A4  1683               	bsf	3,5	;RP0=1, select bank1
  1766     05A5  1303               	bcf	3,6	;RP1=0, select bank1
  1767     05A6  080F               	movf	15,w	;volatile
  1768     05A7  398F               	andlw	-113
  1769     05A8  3860               	iorlw	96
  1770     05A9  008F               	movwf	15	;volatile
  1771     05AA                     l285:	
  1772                           ;oscilador.c: 16:     }
  1773                           
  1774                           
  1775                           ;oscilador.c: 17:     if (IRCF == 5){
  1776     05AA  3005               	movlw	5
  1777     05AB  1283               	bcf	3,5	;RP0=0, select bank0
  1778     05AC  0620               	xorwf	setupINTOSC@IRCF,w
  1779     05AD  1D03               	btfss	3,2
  1780     05AE  2DB0               	goto	u2151
  1781     05AF  2DB1               	goto	u2150
  1782     05B0                     u2151:
  1783     05B0  2DB7               	goto	l286
  1784     05B1                     u2150:
  1785     05B1                     l2697:
  1786                           
  1787                           ;oscilador.c: 18:         OSCCONbits.IRCF = 0b101;
  1788     05B1  1683               	bsf	3,5	;RP0=1, select bank1
  1789     05B2  1303               	bcf	3,6	;RP1=0, select bank1
  1790     05B3  080F               	movf	15,w	;volatile
  1791     05B4  398F               	andlw	-113
  1792     05B5  3850               	iorlw	80
  1793     05B6  008F               	movwf	15	;volatile
  1794     05B7                     l286:	
  1795                           ;oscilador.c: 19:     }
  1796                           
  1797                           
  1798                           ;oscilador.c: 20:     if (IRCF == 4){
  1799     05B7  3004               	movlw	4
  1800     05B8  1283               	bcf	3,5	;RP0=0, select bank0
  1801     05B9  0620               	xorwf	setupINTOSC@IRCF,w
  1802     05BA  1D03               	btfss	3,2
  1803     05BB  2DBD               	goto	u2161
  1804     05BC  2DBE               	goto	u2160
  1805     05BD                     u2161:
  1806     05BD  2DC4               	goto	l287
  1807     05BE                     u2160:
  1808     05BE                     l2699:
  1809                           
  1810                           ;oscilador.c: 21:         OSCCONbits.IRCF = 0b100;
  1811     05BE  1683               	bsf	3,5	;RP0=1, select bank1
  1812     05BF  1303               	bcf	3,6	;RP1=0, select bank1
  1813     05C0  080F               	movf	15,w	;volatile
  1814     05C1  398F               	andlw	-113
  1815     05C2  3840               	iorlw	64
  1816     05C3  008F               	movwf	15	;volatile
  1817     05C4                     l287:	
  1818                           ;oscilador.c: 22:     }
  1819                           
  1820                           
  1821                           ;oscilador.c: 23:     if (IRCF == 3){
  1822     05C4  3003               	movlw	3
  1823     05C5  1283               	bcf	3,5	;RP0=0, select bank0
  1824     05C6  0620               	xorwf	setupINTOSC@IRCF,w
  1825     05C7  1D03               	btfss	3,2
  1826     05C8  2DCA               	goto	u2171
  1827     05C9  2DCB               	goto	u2170
  1828     05CA                     u2171:
  1829     05CA  2DD1               	goto	l288
  1830     05CB                     u2170:
  1831     05CB                     l2701:
  1832                           
  1833                           ;oscilador.c: 24:         OSCCONbits.IRCF = 0b011;
  1834     05CB  1683               	bsf	3,5	;RP0=1, select bank1
  1835     05CC  1303               	bcf	3,6	;RP1=0, select bank1
  1836     05CD  080F               	movf	15,w	;volatile
  1837     05CE  398F               	andlw	-113
  1838     05CF  3830               	iorlw	48
  1839     05D0  008F               	movwf	15	;volatile
  1840     05D1                     l288:	
  1841                           ;oscilador.c: 25:     }
  1842                           
  1843                           
  1844                           ;oscilador.c: 26:     if (IRCF == 2){
  1845     05D1  3002               	movlw	2
  1846     05D2  1283               	bcf	3,5	;RP0=0, select bank0
  1847     05D3  0620               	xorwf	setupINTOSC@IRCF,w
  1848     05D4  1D03               	btfss	3,2
  1849     05D5  2DD7               	goto	u2181
  1850     05D6  2DD8               	goto	u2180
  1851     05D7                     u2181:
  1852     05D7  2DDE               	goto	l289
  1853     05D8                     u2180:
  1854     05D8                     l2703:
  1855                           
  1856                           ;oscilador.c: 27:         OSCCONbits.IRCF = 0b010;
  1857     05D8  1683               	bsf	3,5	;RP0=1, select bank1
  1858     05D9  1303               	bcf	3,6	;RP1=0, select bank1
  1859     05DA  080F               	movf	15,w	;volatile
  1860     05DB  398F               	andlw	-113
  1861     05DC  3820               	iorlw	32
  1862     05DD  008F               	movwf	15	;volatile
  1863     05DE                     l289:	
  1864                           ;oscilador.c: 28:     }
  1865                           
  1866                           
  1867                           ;oscilador.c: 29:     if (IRCF == 1){
  1868     05DE  1283               	bcf	3,5	;RP0=0, select bank0
  1869     05DF  0320               	decf	setupINTOSC@IRCF,w
  1870     05E0  1D03               	btfss	3,2
  1871     05E1  2DE3               	goto	u2191
  1872     05E2  2DE4               	goto	u2190
  1873     05E3                     u2191:
  1874     05E3  2DEA               	goto	l290
  1875     05E4                     u2190:
  1876     05E4                     l2705:
  1877                           
  1878                           ;oscilador.c: 30:         OSCCONbits.IRCF = 0b001;
  1879     05E4  1683               	bsf	3,5	;RP0=1, select bank1
  1880     05E5  1303               	bcf	3,6	;RP1=0, select bank1
  1881     05E6  080F               	movf	15,w	;volatile
  1882     05E7  398F               	andlw	-113
  1883     05E8  3810               	iorlw	16
  1884     05E9  008F               	movwf	15	;volatile
  1885     05EA                     l290:	
  1886                           ;oscilador.c: 31:     }
  1887                           
  1888                           
  1889                           ;oscilador.c: 32:     if (IRCF == 0){
  1890     05EA  1283               	bcf	3,5	;RP0=0, select bank0
  1891     05EB  0820               	movf	setupINTOSC@IRCF,w
  1892     05EC  1D03               	btfss	3,2
  1893     05ED  2DEF               	goto	u2201
  1894     05EE  2DF0               	goto	u2200
  1895     05EF                     u2201:
  1896     05EF  2DF4               	goto	l2709
  1897     05F0                     u2200:
  1898     05F0                     l2707:
  1899                           
  1900                           ;oscilador.c: 33:         OSCCONbits.IRCF = 0b000;
  1901     05F0  308F               	movlw	-113
  1902     05F1  1683               	bsf	3,5	;RP0=1, select bank1
  1903     05F2  1303               	bcf	3,6	;RP1=0, select bank1
  1904     05F3  058F               	andwf	15,f	;volatile
  1905     05F4                     l2709:
  1906                           
  1907                           ;oscilador.c: 36:     OSCCONbits.SCS = 1;
  1908     05F4  1683               	bsf	3,5	;RP0=1, select bank1
  1909     05F5  1303               	bcf	3,6	;RP1=0, select bank1
  1910     05F6  140F               	bsf	15,0	;volatile
  1911     05F7                     l292:
  1912     05F7  0008               	return
  1913     05F8                     __end_of_setupINTOSC:
  1914                           
  1915                           	psect	text6
  1916     0F3B                     __ptext6:	
  1917 ;; *************** function _setup *****************
  1918 ;; Defined at:
  1919 ;;		line 184 in file "main.c"
  1920 ;; Parameters:    Size  Location     Type
  1921 ;;		None
  1922 ;; Auto vars:     Size  Location     Type
  1923 ;;		None
  1924 ;; Return value:  Size  Location     Type
  1925 ;;                  1    wreg      void 
  1926 ;; Registers used:
  1927 ;;		wreg, status,2
  1928 ;; Tracked objects:
  1929 ;;		On entry : 0/0
  1930 ;;		On exit  : 0/0
  1931 ;;		Unchanged: 0/0
  1932 ;; Data sizes:     COMMON   BANK0   BANK1   BANK3   BANK2
  1933 ;;      Params:         0       0       0       0       0
  1934 ;;      Locals:         0       0       0       0       0
  1935 ;;      Temps:          0       0       0       0       0
  1936 ;;      Totals:         0       0       0       0       0
  1937 ;;Total ram usage:        0 bytes
  1938 ;; Hardware stack levels used: 1
  1939 ;; Hardware stack levels required when called: 2
  1940 ;; This function calls:
  1941 ;;		Nothing
  1942 ;; This function is called by:
  1943 ;;		_main
  1944 ;; This function uses a non-reentrant model
  1945 ;;
  1946                           
  1947     0F3B                     _setup:	
  1948                           ;psect for function _setup
  1949                           
  1950     0F3B                     l2681:	
  1951                           ;incstack = 0
  1952                           ; Regs used in _setup: [wreg+status,2]
  1953                           
  1954                           
  1955                           ;main.c: 185:     ANSELH = 0;
  1956     0F3B  1683               	bsf	3,5	;RP0=1, select bank3
  1957     0F3C  1703               	bsf	3,6	;RP1=1, select bank3
  1958     0F3D  0189               	clrf	9	;volatile
  1959     0F3E                     l2683:
  1960                           
  1961                           ;main.c: 186:     TRISC = 0b10000000;
  1962     0F3E  3080               	movlw	128
  1963     0F3F  1683               	bsf	3,5	;RP0=1, select bank1
  1964     0F40  1303               	bcf	3,6	;RP1=0, select bank1
  1965     0F41  0087               	movwf	7	;volatile
  1966     0F42                     l2685:
  1967                           
  1968                           ;main.c: 187:     TRISD = 0;
  1969     0F42  0188               	clrf	8	;volatile
  1970     0F43                     l2687:
  1971                           
  1972                           ;main.c: 188:     PORTC = 0;
  1973     0F43  1283               	bcf	3,5	;RP0=0, select bank0
  1974     0F44  1303               	bcf	3,6	;RP1=0, select bank0
  1975     0F45  0187               	clrf	7	;volatile
  1976     0F46                     l2689:
  1977                           
  1978                           ;main.c: 189:     PORTD = 0;
  1979     0F46  0188               	clrf	8	;volatile
  1980     0F47                     l160:
  1981     0F47  0008               	return
  1982     0F48                     __end_of_setup:
  1983                           
  1984                           	psect	text7
  1985     0F71                     __ptext7:	
  1986 ;; *************** function _initUART *****************
  1987 ;; Defined at:
  1988 ;;		line 9 in file "setupUART.c"
  1989 ;; Parameters:    Size  Location     Type
  1990 ;;		None
  1991 ;; Auto vars:     Size  Location     Type
  1992 ;;		None
  1993 ;; Return value:  Size  Location     Type
  1994 ;;                  1    wreg      void 
  1995 ;; Registers used:
  1996 ;;		wreg, status,2
  1997 ;; Tracked objects:
  1998 ;;		On entry : 0/0
  1999 ;;		On exit  : 0/0
  2000 ;;		Unchanged: 0/0
  2001 ;; Data sizes:     COMMON   BANK0   BANK1   BANK3   BANK2
  2002 ;;      Params:         0       0       0       0       0
  2003 ;;      Locals:         0       0       0       0       0
  2004 ;;      Temps:          0       0       0       0       0
  2005 ;;      Totals:         0       0       0       0       0
  2006 ;;Total ram usage:        0 bytes
  2007 ;; Hardware stack levels used: 1
  2008 ;; Hardware stack levels required when called: 2
  2009 ;; This function calls:
  2010 ;;		Nothing
  2011 ;; This function is called by:
  2012 ;;		_main
  2013 ;; This function uses a non-reentrant model
  2014 ;;
  2015                           
  2016     0F71                     _initUART:	
  2017                           ;psect for function _initUART
  2018                           
  2019     0F71                     l2745:	
  2020                           ;incstack = 0
  2021                           ; Regs used in _initUART: [wreg+status,2]
  2022                           
  2023                           
  2024                           ;setupUART.c: 11:     SPBRG = 25;
  2025     0F71  3019               	movlw	25
  2026     0F72  1683               	bsf	3,5	;RP0=1, select bank1
  2027     0F73  1303               	bcf	3,6	;RP1=0, select bank1
  2028     0F74  0099               	movwf	25	;volatile
  2029     0F75                     l2747:
  2030                           
  2031                           ;setupUART.c: 12:     SPBRGH = 0;
  2032     0F75  019A               	clrf	26	;volatile
  2033     0F76                     l2749:
  2034                           
  2035                           ;setupUART.c: 13:     BAUDCTLbits.BRG16 = 1;
  2036     0F76  1683               	bsf	3,5	;RP0=1, select bank3
  2037     0F77  1703               	bsf	3,6	;RP1=1, select bank3
  2038     0F78  1587               	bsf	7,3	;volatile
  2039     0F79                     l2751:
  2040                           
  2041                           ;setupUART.c: 14:     TXSTAbits.BRGH = 1;
  2042     0F79  1683               	bsf	3,5	;RP0=1, select bank1
  2043     0F7A  1303               	bcf	3,6	;RP1=0, select bank1
  2044     0F7B  1518               	bsf	24,2	;volatile
  2045     0F7C                     l2753:
  2046                           
  2047                           ;setupUART.c: 16:     TXSTAbits.SYNC = 0;
  2048     0F7C  1218               	bcf	24,4	;volatile
  2049     0F7D                     l2755:
  2050                           
  2051                           ;setupUART.c: 17:     RCSTAbits.SPEN = 1;
  2052     0F7D  1283               	bcf	3,5	;RP0=0, select bank0
  2053     0F7E  1303               	bcf	3,6	;RP1=0, select bank0
  2054     0F7F  1798               	bsf	24,7	;volatile
  2055     0F80                     l2757:
  2056                           
  2057                           ;setupUART.c: 19:     TXSTAbits.TXEN = 1;
  2058     0F80  1683               	bsf	3,5	;RP0=1, select bank1
  2059     0F81  1303               	bcf	3,6	;RP1=0, select bank1
  2060     0F82  1698               	bsf	24,5	;volatile
  2061     0F83                     l2759:
  2062                           
  2063                           ;setupUART.c: 20:     PIR1bits.TXIF = 0;
  2064     0F83  1283               	bcf	3,5	;RP0=0, select bank0
  2065     0F84  1303               	bcf	3,6	;RP1=0, select bank0
  2066     0F85  120C               	bcf	12,4	;volatile
  2067     0F86                     l2761:
  2068                           
  2069                           ;setupUART.c: 22:     RCSTAbits.CREN = 1;
  2070     0F86  1618               	bsf	24,4	;volatile
  2071     0F87                     l345:
  2072     0F87  0008               	return
  2073     0F88                     __end_of_initUART:
  2074                           
  2075                           	psect	text8
  2076     01CC                     __ptext8:	
  2077 ;; *************** function _controlservos *****************
  2078 ;; Defined at:
  2079 ;;		line 392 in file "main.c"
  2080 ;; Parameters:    Size  Location     Type
  2081 ;;		None
  2082 ;; Auto vars:     Size  Location     Type
  2083 ;;		None
  2084 ;; Return value:  Size  Location     Type
  2085 ;;                  1    wreg      void 
  2086 ;; Registers used:
  2087 ;;		wreg, status,2, status,0, pclath, cstack
  2088 ;; Tracked objects:
  2089 ;;		On entry : 0/0
  2090 ;;		On exit  : 0/0
  2091 ;;		Unchanged: 0/0
  2092 ;; Data sizes:     COMMON   BANK0   BANK1   BANK3   BANK2
  2093 ;;      Params:         0       0       0       0       0
  2094 ;;      Locals:         0       0       0       0       0
  2095 ;;      Temps:          0       3       0       0       0
  2096 ;;      Totals:         0       3       0       0       0
  2097 ;;Total ram usage:        3 bytes
  2098 ;; Hardware stack levels used: 1
  2099 ;; Hardware stack levels required when called: 4
  2100 ;; This function calls:
  2101 ;;		_mapeo
  2102 ;; This function is called by:
  2103 ;;		_main
  2104 ;; This function uses a non-reentrant model
  2105 ;;
  2106                           
  2107     01CC                     _controlservos:	
  2108                           ;psect for function _controlservos
  2109                           
  2110     01CC                     l2833:	
  2111                           ;incstack = 0
  2112                           ; Regs used in _controlservos: [wreg+status,2+status,0+pclath+cstack]
  2113                           
  2114                           
  2115                           ;main.c: 394:     ADCON0bits.CHS = 0b0000;
  2116     01CC  30C3               	movlw	-61
  2117     01CD  1283               	bcf	3,5	;RP0=0, select bank0
  2118     01CE  1303               	bcf	3,6	;RP1=0, select bank0
  2119     01CF  059F               	andwf	31,f	;volatile
  2120     01D0                     l2835:
  2121                           
  2122                           ;main.c: 395:     _delay((unsigned long)((100)*(1000000/4000000.0)));
  2123     01D0  3007               	movlw	7
  2124     01D1  1283               	bcf	3,5	;RP0=0, select bank0
  2125     01D2  1303               	bcf	3,6	;RP1=0, select bank0
  2126     01D3  00BB               	movwf	??_controlservos
  2127     01D4                     u2557:
  2128     01D4  0BBB               	decfsz	??_controlservos,f
  2129     01D5  29D4               	goto	u2557
  2130     01D6  0000               	nop
  2131     01D7                     l2837:
  2132                           
  2133                           ;main.c: 396:     ADCON0bits.GO = 1;
  2134     01D7  1283               	bcf	3,5	;RP0=0, select bank0
  2135     01D8  1303               	bcf	3,6	;RP1=0, select bank0
  2136     01D9  149F               	bsf	31,1	;volatile
  2137     01DA                     l263:	
  2138                           ;main.c: 397:     while (ADCON0bits.GO == 1);
  2139                           
  2140     01DA  189F               	btfsc	31,1	;volatile
  2141     01DB  29DD               	goto	u2401
  2142     01DC  29DE               	goto	u2400
  2143     01DD                     u2401:
  2144     01DD  29DA               	goto	l263
  2145     01DE                     u2400:
  2146     01DE                     l265:
  2147                           
  2148                           ;main.c: 398:     ADIF = 0;
  2149     01DE  130C               	bcf	12,6	;volatile
  2150     01DF                     l2839:
  2151                           
  2152                           ;main.c: 399:     if (modo == 0){
  2153     01DF  0872               	movf	_modo,w
  2154     01E0  0473               	iorwf	_modo+1,w
  2155     01E1  1D03               	btfss	3,2
  2156     01E2  29E4               	goto	u2411
  2157     01E3  29E5               	goto	u2410
  2158     01E4                     u2411:
  2159     01E4  2A06               	goto	l2843
  2160     01E5                     u2410:
  2161     01E5                     l2841:
  2162                           
  2163                           ;main.c: 400:         v1PWM = mapeo(ADRESH, 0, 255, 63, 125);
  2164     01E5  081E               	movf	30,w	;volatile
  2165     01E6  00BB               	movwf	??_controlservos
  2166     01E7  01BC               	clrf	??_controlservos+1
  2167     01E8  083B               	movf	??_controlservos,w
  2168     01E9  00AF               	movwf	mapeo@valor
  2169     01EA  083C               	movf	??_controlservos+1,w
  2170     01EB  00B0               	movwf	mapeo@valor+1
  2171     01EC  3000               	movlw	0
  2172     01ED  00B1               	movwf	mapeo@inmin
  2173     01EE  00B2               	movwf	mapeo@inmin+1
  2174     01EF  30FF               	movlw	255
  2175     01F0  00B3               	movwf	mapeo@inmax
  2176     01F1  3000               	movlw	0
  2177     01F2  00B4               	movwf	mapeo@inmax+1
  2178     01F3  303F               	movlw	63
  2179     01F4  00B5               	movwf	mapeo@outmin
  2180     01F5  3000               	movlw	0
  2181     01F6  00B6               	movwf	mapeo@outmin+1
  2182     01F7  307D               	movlw	125
  2183     01F8  00B7               	movwf	mapeo@outmax
  2184     01F9  3000               	movlw	0
  2185     01FA  00B8               	movwf	mapeo@outmax+1
  2186     01FB  120A  118A  26EB  120A  118A  	fcall	_mapeo
  2187     0200  1283               	bcf	3,5	;RP0=0, select bank0
  2188     0201  1303               	bcf	3,6	;RP1=0, select bank0
  2189     0202  0830               	movf	?_mapeo+1,w
  2190     0203  00CC               	movwf	_v1PWM+1
  2191     0204  082F               	movf	?_mapeo,w
  2192     0205  00CB               	movwf	_v1PWM
  2193     0206                     l2843:
  2194                           
  2195                           ;main.c: 404:     vPWMl = v1PWM & 0x003;
  2196     0206  3003               	movlw	3
  2197     0207  054B               	andwf	_v1PWM,w
  2198     0208  00C7               	movwf	_vPWMl
  2199     0209  3000               	movlw	0
  2200     020A  054C               	andwf	_v1PWM+1,w
  2201     020B  00C8               	movwf	_vPWMl+1
  2202     020C                     l2845:
  2203                           
  2204                           ;main.c: 406:     vPWMh = (v1PWM & 0x3FC) >> 2;
  2205     020C  084C               	movf	_v1PWM+1,w
  2206     020D  00BC               	movwf	??_controlservos+1
  2207     020E  084B               	movf	_v1PWM,w
  2208     020F  00BB               	movwf	??_controlservos
  2209     0210  1003               	clrc
  2210     0211  0CBC               	rrf	??_controlservos+1,f
  2211     0212  0CBB               	rrf	??_controlservos,f
  2212     0213  1003               	clrc
  2213     0214  0CBC               	rrf	??_controlservos+1,f
  2214     0215  0CBB               	rrf	??_controlservos,f
  2215     0216  30FF               	movlw	255
  2216     0217  053B               	andwf	??_controlservos,w
  2217     0218  00C5               	movwf	_vPWMh
  2218     0219  3000               	movlw	0
  2219     021A  053C               	andwf	??_controlservos+1,w
  2220     021B  00C6               	movwf	_vPWMh+1
  2221     021C                     l2847:
  2222                           
  2223                           ;main.c: 408:     CCP1CONbits.DC1B = vPWMl;
  2224     021C  0847               	movf	_vPWMl,w
  2225     021D  00BB               	movwf	??_controlservos
  2226     021E  0EBB               	swapf	??_controlservos,f
  2227     021F  0817               	movf	23,w	;volatile
  2228     0220  063B               	xorwf	??_controlservos,w
  2229     0221  39CF               	andlw	-49
  2230     0222  063B               	xorwf	??_controlservos,w
  2231     0223  0097               	movwf	23	;volatile
  2232     0224                     l2849:
  2233                           
  2234                           ;main.c: 410:     CCPR1L = vPWMh;
  2235     0224  0845               	movf	_vPWMh,w
  2236     0225  0095               	movwf	21	;volatile
  2237     0226                     l2851:
  2238                           
  2239                           ;main.c: 413:     ADCON0bits.CHS = 0b0001;
  2240     0226  081F               	movf	31,w	;volatile
  2241     0227  39C3               	andlw	-61
  2242     0228  3804               	iorlw	4
  2243     0229  009F               	movwf	31	;volatile
  2244     022A                     l2853:
  2245                           
  2246                           ;main.c: 414:     _delay((unsigned long)((100)*(1000000/4000000.0)));
  2247     022A  3007               	movlw	7
  2248     022B  1283               	bcf	3,5	;RP0=0, select bank0
  2249     022C  1303               	bcf	3,6	;RP1=0, select bank0
  2250     022D  00BB               	movwf	??_controlservos
  2251     022E                     u2567:
  2252     022E  0BBB               	decfsz	??_controlservos,f
  2253     022F  2A2E               	goto	u2567
  2254     0230  0000               	nop
  2255     0231                     l2855:
  2256                           
  2257                           ;main.c: 415:     ADCON0bits.GO = 1;
  2258     0231  1283               	bcf	3,5	;RP0=0, select bank0
  2259     0232  1303               	bcf	3,6	;RP1=0, select bank0
  2260     0233  149F               	bsf	31,1	;volatile
  2261     0234                     l267:	
  2262                           ;main.c: 416:     while (ADCON0bits.GO == 1);
  2263                           
  2264     0234  189F               	btfsc	31,1	;volatile
  2265     0235  2A37               	goto	u2421
  2266     0236  2A38               	goto	u2420
  2267     0237                     u2421:
  2268     0237  2A34               	goto	l267
  2269     0238                     u2420:
  2270     0238                     l269:
  2271                           
  2272                           ;main.c: 417:     ADIF = 0;
  2273     0238  130C               	bcf	12,6	;volatile
  2274     0239                     l2857:
  2275                           
  2276                           ;main.c: 418:     if (modo == 0){
  2277     0239  0872               	movf	_modo,w
  2278     023A  0473               	iorwf	_modo+1,w
  2279     023B  1D03               	btfss	3,2
  2280     023C  2A3E               	goto	u2431
  2281     023D  2A3F               	goto	u2430
  2282     023E                     u2431:
  2283     023E  2A60               	goto	l2861
  2284     023F                     u2430:
  2285     023F                     l2859:
  2286                           
  2287                           ;main.c: 419:         v2PWM = mapeo(ADRESH, 0, 255, 63, 125);
  2288     023F  081E               	movf	30,w	;volatile
  2289     0240  00BB               	movwf	??_controlservos
  2290     0241  01BC               	clrf	??_controlservos+1
  2291     0242  083B               	movf	??_controlservos,w
  2292     0243  00AF               	movwf	mapeo@valor
  2293     0244  083C               	movf	??_controlservos+1,w
  2294     0245  00B0               	movwf	mapeo@valor+1
  2295     0246  3000               	movlw	0
  2296     0247  00B1               	movwf	mapeo@inmin
  2297     0248  00B2               	movwf	mapeo@inmin+1
  2298     0249  30FF               	movlw	255
  2299     024A  00B3               	movwf	mapeo@inmax
  2300     024B  3000               	movlw	0
  2301     024C  00B4               	movwf	mapeo@inmax+1
  2302     024D  303F               	movlw	63
  2303     024E  00B5               	movwf	mapeo@outmin
  2304     024F  3000               	movlw	0
  2305     0250  00B6               	movwf	mapeo@outmin+1
  2306     0251  307D               	movlw	125
  2307     0252  00B7               	movwf	mapeo@outmax
  2308     0253  3000               	movlw	0
  2309     0254  00B8               	movwf	mapeo@outmax+1
  2310     0255  120A  118A  26EB  120A  118A  	fcall	_mapeo
  2311     025A  1283               	bcf	3,5	;RP0=0, select bank0
  2312     025B  1303               	bcf	3,6	;RP1=0, select bank0
  2313     025C  0830               	movf	?_mapeo+1,w
  2314     025D  00CA               	movwf	_v2PWM+1
  2315     025E  082F               	movf	?_mapeo,w
  2316     025F  00C9               	movwf	_v2PWM
  2317     0260                     l2861:
  2318                           
  2319                           ;main.c: 422:     vPWMl = v2PWM & 0x003;
  2320     0260  3003               	movlw	3
  2321     0261  0549               	andwf	_v2PWM,w
  2322     0262  00C7               	movwf	_vPWMl
  2323     0263  3000               	movlw	0
  2324     0264  054A               	andwf	_v2PWM+1,w
  2325     0265  00C8               	movwf	_vPWMl+1
  2326     0266                     l2863:
  2327                           
  2328                           ;main.c: 424:     vPWMh = (v2PWM & 0x3FC) >> 2;
  2329     0266  084A               	movf	_v2PWM+1,w
  2330     0267  00BC               	movwf	??_controlservos+1
  2331     0268  0849               	movf	_v2PWM,w
  2332     0269  00BB               	movwf	??_controlservos
  2333     026A  1003               	clrc
  2334     026B  0CBC               	rrf	??_controlservos+1,f
  2335     026C  0CBB               	rrf	??_controlservos,f
  2336     026D  1003               	clrc
  2337     026E  0CBC               	rrf	??_controlservos+1,f
  2338     026F  0CBB               	rrf	??_controlservos,f
  2339     0270  30FF               	movlw	255
  2340     0271  053B               	andwf	??_controlservos,w
  2341     0272  00C5               	movwf	_vPWMh
  2342     0273  3000               	movlw	0
  2343     0274  053C               	andwf	??_controlservos+1,w
  2344     0275  00C6               	movwf	_vPWMh+1
  2345     0276                     l2865:
  2346                           
  2347                           ;main.c: 426:     CCP2CONbits.DC2B0 = vPWMl & 0x01;
  2348     0276  0847               	movf	_vPWMl,w
  2349     0277  3901               	andlw	1
  2350     0278  00BB               	movwf	??_controlservos
  2351     0279  0EBB               	swapf	??_controlservos,f
  2352     027A  081D               	movf	29,w	;volatile
  2353     027B  063B               	xorwf	??_controlservos,w
  2354     027C  39EF               	andlw	-17
  2355     027D  063B               	xorwf	??_controlservos,w
  2356     027E  009D               	movwf	29	;volatile
  2357     027F                     l2867:
  2358                           
  2359                           ;main.c: 427:     CCP2CONbits.DC2B1 = ((vPWMl & 0x02) >> 1);
  2360     027F  0848               	movf	_vPWMl+1,w
  2361     0280  00BC               	movwf	??_controlservos+1
  2362     0281  0847               	movf	_vPWMl,w
  2363     0282  00BB               	movwf	??_controlservos
  2364     0283  1003               	clrc
  2365     0284  0CBC               	rrf	??_controlservos+1,f
  2366     0285  0CBB               	rrf	??_controlservos,f
  2367     0286  083B               	movf	??_controlservos,w
  2368     0287  3901               	andlw	1
  2369     0288  00BD               	movwf	??_controlservos+2
  2370     0289  0EBD               	swapf	??_controlservos+2,f
  2371     028A  0DBD               	rlf	??_controlservos+2,f
  2372     028B  081D               	movf	29,w	;volatile
  2373     028C  063D               	xorwf	??_controlservos+2,w
  2374     028D  39DF               	andlw	-33
  2375     028E  063D               	xorwf	??_controlservos+2,w
  2376     028F  009D               	movwf	29	;volatile
  2377     0290                     l2869:
  2378                           
  2379                           ;main.c: 429:     CCPR2L = vPWMh;
  2380     0290  0845               	movf	_vPWMh,w
  2381     0291  009B               	movwf	27	;volatile
  2382     0292                     l2871:
  2383                           
  2384                           ;main.c: 433:     ADCON0bits.CHS = 0b0010;
  2385     0292  081F               	movf	31,w	;volatile
  2386     0293  39C3               	andlw	-61
  2387     0294  3808               	iorlw	8
  2388     0295  009F               	movwf	31	;volatile
  2389     0296                     l2873:
  2390                           
  2391                           ;main.c: 434:     _delay((unsigned long)((100)*(1000000/4000000.0)));
  2392     0296  3007               	movlw	7
  2393     0297  1283               	bcf	3,5	;RP0=0, select bank0
  2394     0298  1303               	bcf	3,6	;RP1=0, select bank0
  2395     0299  00BB               	movwf	??_controlservos
  2396     029A                     u2577:
  2397     029A  0BBB               	decfsz	??_controlservos,f
  2398     029B  2A9A               	goto	u2577
  2399     029C  0000               	nop
  2400     029D                     l2875:
  2401                           
  2402                           ;main.c: 435:     ADCON0bits.GO = 1;
  2403     029D  1283               	bcf	3,5	;RP0=0, select bank0
  2404     029E  1303               	bcf	3,6	;RP1=0, select bank0
  2405     029F  149F               	bsf	31,1	;volatile
  2406     02A0                     l271:	
  2407                           ;main.c: 436:     while (ADCON0bits.GO == 1);
  2408                           
  2409     02A0  189F               	btfsc	31,1	;volatile
  2410     02A1  2AA3               	goto	u2441
  2411     02A2  2AA4               	goto	u2440
  2412     02A3                     u2441:
  2413     02A3  2AA0               	goto	l271
  2414     02A4                     u2440:
  2415     02A4                     l273:
  2416                           
  2417                           ;main.c: 437:     ADIF = 0;
  2418     02A4  130C               	bcf	12,6	;volatile
  2419     02A5                     l2877:
  2420                           
  2421                           ;main.c: 438:     if (modo == 0){
  2422     02A5  0872               	movf	_modo,w
  2423     02A6  0473               	iorwf	_modo+1,w
  2424     02A7  1D03               	btfss	3,2
  2425     02A8  2AAA               	goto	u2451
  2426     02A9  2AAB               	goto	u2450
  2427     02AA                     u2451:
  2428     02AA  2ACC               	goto	l2881
  2429     02AB                     u2450:
  2430     02AB                     l2879:
  2431                           
  2432                           ;main.c: 439:         HIGHpulse0 = mapeo(ADRESH, 0, 255, 9, 26);
  2433     02AB  081E               	movf	30,w	;volatile
  2434     02AC  00BB               	movwf	??_controlservos
  2435     02AD  01BC               	clrf	??_controlservos+1
  2436     02AE  083B               	movf	??_controlservos,w
  2437     02AF  00AF               	movwf	mapeo@valor
  2438     02B0  083C               	movf	??_controlservos+1,w
  2439     02B1  00B0               	movwf	mapeo@valor+1
  2440     02B2  3000               	movlw	0
  2441     02B3  00B1               	movwf	mapeo@inmin
  2442     02B4  00B2               	movwf	mapeo@inmin+1
  2443     02B5  30FF               	movlw	255
  2444     02B6  00B3               	movwf	mapeo@inmax
  2445     02B7  3000               	movlw	0
  2446     02B8  00B4               	movwf	mapeo@inmax+1
  2447     02B9  3009               	movlw	9
  2448     02BA  00B5               	movwf	mapeo@outmin
  2449     02BB  3000               	movlw	0
  2450     02BC  00B6               	movwf	mapeo@outmin+1
  2451     02BD  301A               	movlw	26
  2452     02BE  00B7               	movwf	mapeo@outmax
  2453     02BF  3000               	movlw	0
  2454     02C0  00B8               	movwf	mapeo@outmax+1
  2455     02C1  120A  118A  26EB  120A  118A  	fcall	_mapeo
  2456     02C6  1283               	bcf	3,5	;RP0=0, select bank0
  2457     02C7  1303               	bcf	3,6	;RP1=0, select bank0
  2458     02C8  0830               	movf	?_mapeo+1,w
  2459     02C9  00F5               	movwf	_HIGHpulse0+1
  2460     02CA  082F               	movf	?_mapeo,w
  2461     02CB  00F4               	movwf	_HIGHpulse0
  2462     02CC                     l2881:
  2463                           
  2464                           ;main.c: 443:     ADCON0bits.CHS = 0b0011;
  2465     02CC  081F               	movf	31,w	;volatile
  2466     02CD  39C3               	andlw	-61
  2467     02CE  380C               	iorlw	12
  2468     02CF  009F               	movwf	31	;volatile
  2469     02D0                     l2883:
  2470                           
  2471                           ;main.c: 444:     _delay((unsigned long)((100)*(1000000/4000000.0)));
  2472     02D0  3007               	movlw	7
  2473     02D1  1283               	bcf	3,5	;RP0=0, select bank0
  2474     02D2  1303               	bcf	3,6	;RP1=0, select bank0
  2475     02D3  00BB               	movwf	??_controlservos
  2476     02D4                     u2587:
  2477     02D4  0BBB               	decfsz	??_controlservos,f
  2478     02D5  2AD4               	goto	u2587
  2479     02D6  0000               	nop
  2480     02D7                     l2885:
  2481                           
  2482                           ;main.c: 445:     ADCON0bits.GO = 1;
  2483     02D7  1283               	bcf	3,5	;RP0=0, select bank0
  2484     02D8  1303               	bcf	3,6	;RP1=0, select bank0
  2485     02D9  149F               	bsf	31,1	;volatile
  2486     02DA                     l275:	
  2487                           ;main.c: 446:     while (ADCON0bits.GO == 1);
  2488                           
  2489     02DA  189F               	btfsc	31,1	;volatile
  2490     02DB  2ADD               	goto	u2461
  2491     02DC  2ADE               	goto	u2460
  2492     02DD                     u2461:
  2493     02DD  2ADA               	goto	l275
  2494     02DE                     u2460:
  2495     02DE                     l277:
  2496                           
  2497                           ;main.c: 447:     ADIF = 0;
  2498     02DE  130C               	bcf	12,6	;volatile
  2499     02DF                     l2887:
  2500                           
  2501                           ;main.c: 448:     if (modo == 0){
  2502     02DF  0872               	movf	_modo,w
  2503     02E0  0473               	iorwf	_modo+1,w
  2504     02E1  1D03               	btfss	3,2
  2505     02E2  2AE4               	goto	u2471
  2506     02E3  2AE5               	goto	u2470
  2507     02E4                     u2471:
  2508     02E4  2B06               	goto	l2891
  2509     02E5                     u2470:
  2510     02E5                     l2889:
  2511                           
  2512                           ;main.c: 449:         HIGHpulse1 = mapeo(ADRESH, 0, 255, 9, 20);
  2513     02E5  081E               	movf	30,w	;volatile
  2514     02E6  00BB               	movwf	??_controlservos
  2515     02E7  01BC               	clrf	??_controlservos+1
  2516     02E8  083B               	movf	??_controlservos,w
  2517     02E9  00AF               	movwf	mapeo@valor
  2518     02EA  083C               	movf	??_controlservos+1,w
  2519     02EB  00B0               	movwf	mapeo@valor+1
  2520     02EC  3000               	movlw	0
  2521     02ED  00B1               	movwf	mapeo@inmin
  2522     02EE  00B2               	movwf	mapeo@inmin+1
  2523     02EF  30FF               	movlw	255
  2524     02F0  00B3               	movwf	mapeo@inmax
  2525     02F1  3000               	movlw	0
  2526     02F2  00B4               	movwf	mapeo@inmax+1
  2527     02F3  3009               	movlw	9
  2528     02F4  00B5               	movwf	mapeo@outmin
  2529     02F5  3000               	movlw	0
  2530     02F6  00B6               	movwf	mapeo@outmin+1
  2531     02F7  3014               	movlw	20
  2532     02F8  00B7               	movwf	mapeo@outmax
  2533     02F9  3000               	movlw	0
  2534     02FA  00B8               	movwf	mapeo@outmax+1
  2535     02FB  120A  118A  26EB  120A  118A  	fcall	_mapeo
  2536     0300  1283               	bcf	3,5	;RP0=0, select bank0
  2537     0301  1303               	bcf	3,6	;RP1=0, select bank0
  2538     0302  0830               	movf	?_mapeo+1,w
  2539     0303  00C4               	movwf	_HIGHpulse1+1
  2540     0304  082F               	movf	?_mapeo,w
  2541     0305  00C3               	movwf	_HIGHpulse1
  2542     0306                     l2891:
  2543                           
  2544                           ;main.c: 451:     _delay((unsigned long)((50)*(1000000/4000.0)));
  2545     0306  3011               	movlw	17
  2546     0307  1283               	bcf	3,5	;RP0=0, select bank0
  2547     0308  1303               	bcf	3,6	;RP1=0, select bank0
  2548     0309  00BC               	movwf	??_controlservos+1
  2549     030A  3039               	movlw	57
  2550     030B  00BB               	movwf	??_controlservos
  2551     030C                     u2597:
  2552     030C  0BBB               	decfsz	??_controlservos,f
  2553     030D  2B0C               	goto	u2597
  2554     030E  0BBC               	decfsz	??_controlservos+1,f
  2555     030F  2B0C               	goto	u2597
  2556     0310  2B11               	nop2
  2557     0311                     l279:
  2558     0311  0008               	return
  2559     0312                     __end_of_controlservos:
  2560                           
  2561                           	psect	text9
  2562     0026                     __ptext9:	
  2563 ;; *************** function _adafruitrec *****************
  2564 ;; Defined at:
  2565 ;;		line 227 in file "main.c"
  2566 ;; Parameters:    Size  Location     Type
  2567 ;;		None
  2568 ;; Auto vars:     Size  Location     Type
  2569 ;;		None
  2570 ;; Return value:  Size  Location     Type
  2571 ;;                  1    wreg      void 
  2572 ;; Registers used:
  2573 ;;		wreg, fsr0l, fsr0h, status,2, status,0, btemp+1, pclath, cstack
  2574 ;; Tracked objects:
  2575 ;;		On entry : 0/0
  2576 ;;		On exit  : 0/0
  2577 ;;		Unchanged: 0/0
  2578 ;; Data sizes:     COMMON   BANK0   BANK1   BANK3   BANK2
  2579 ;;      Params:         0       0       0       0       0
  2580 ;;      Locals:         0       0       0       0       0
  2581 ;;      Temps:          0       2       0       0       0
  2582 ;;      Totals:         0       2       0       0       0
  2583 ;;Total ram usage:        2 bytes
  2584 ;; Hardware stack levels used: 1
  2585 ;; Hardware stack levels required when called: 4
  2586 ;; This function calls:
  2587 ;;		_LEDmod
  2588 ;;		_LEDpos
  2589 ;;		_convint
  2590 ;;		_lecpos
  2591 ;;		_lecturanum
  2592 ;;		_mapeo
  2593 ;;		_writepos
  2594 ;; This function is called by:
  2595 ;;		_main
  2596 ;; This function uses a non-reentrant model
  2597 ;;
  2598                           
  2599     0026                     _adafruitrec:	
  2600                           ;psect for function _adafruitrec
  2601                           
  2602     0026                     l2763:	
  2603                           ;incstack = 0
  2604                           ; Regs used in _adafruitrec: [wreg-fsr0h+status,2+status,0+btemp+1+pclath+cstack]
  2605                           
  2606                           
  2607                           ;main.c: 228:     switch (RCREG){
  2608     0026  29AA               	goto	l2825
  2609     0027                     l176:	
  2610                           ;main.c: 229:         case 'a':
  2611                           
  2612                           
  2613                           ;main.c: 230:             PIR1bits.RCIF = 0;
  2614     0027  128C               	bcf	12,5	;volatile
  2615     0028                     l177:	
  2616                           ;main.c: 231:             while(!RCIF);
  2617                           
  2618     0028  1E8C               	btfss	12,5	;volatile
  2619     0029  282B               	goto	u2231
  2620     002A  282C               	goto	u2230
  2621     002B                     u2231:
  2622     002B  2828               	goto	l177
  2623     002C                     u2230:
  2624     002C                     l2765:
  2625                           
  2626                           ;main.c: 232:             if (RCREG == '1'){
  2627     002C  3031               	movlw	49
  2628     002D  061A               	xorwf	26,w	;volatile
  2629     002E  1D03               	btfss	3,2
  2630     002F  2831               	goto	u2241
  2631     0030  2832               	goto	u2240
  2632     0031                     u2241:
  2633     0031  29CB               	goto	l211
  2634     0032                     u2240:
  2635     0032                     l2767:
  2636                           
  2637                           ;main.c: 233:                 PIR1bits.RCIF = 0;
  2638     0032  128C               	bcf	12,5	;volatile
  2639     0033                     l2769:
  2640                           
  2641                           ;main.c: 234:                 if (modo < 2){
  2642     0033  0873               	movf	_modo+1,w
  2643     0034  3A80               	xorlw	128
  2644     0035  00FF               	movwf	btemp+1
  2645     0036  3080               	movlw	128
  2646     0037  027F               	subwf	btemp+1,w
  2647     0038  1D03               	skipz
  2648     0039  283C               	goto	u2255
  2649     003A  3002               	movlw	2
  2650     003B  0272               	subwf	_modo,w
  2651     003C                     u2255:
  2652     003C  1803               	skipnc
  2653     003D  283F               	goto	u2251
  2654     003E  2840               	goto	u2250
  2655     003F                     u2251:
  2656     003F  2849               	goto	l2773
  2657     0040                     u2250:
  2658     0040                     l2771:
  2659                           
  2660                           ;main.c: 235:                     modo = modo + 1;
  2661     0040  0872               	movf	_modo,w
  2662     0041  3E01               	addlw	1
  2663     0042  00F2               	movwf	_modo
  2664     0043  0873               	movf	_modo+1,w
  2665     0044  1803               	skipnc
  2666     0045  3E01               	addlw	1
  2667     0046  3E00               	addlw	0
  2668     0047  00F3               	movwf	_modo+1
  2669                           
  2670                           ;main.c: 236:                 }
  2671     0048  284B               	goto	l2775
  2672     0049                     l2773:
  2673                           
  2674                           ;main.c: 238:                     modo = 0;
  2675     0049  01F2               	clrf	_modo
  2676     004A  01F3               	clrf	_modo+1
  2677     004B                     l2775:
  2678                           
  2679                           ;main.c: 240:                 LEDmod();
  2680     004B  120A  118A  27A9  120A  118A  	fcall	_LEDmod
  2681     0050  29CB               	goto	l211
  2682     0051                     l184:	
  2683                           ;main.c: 243:         case 'b':
  2684                           
  2685                           
  2686                           ;main.c: 244:             PIR1bits.RCIF = 0;
  2687     0051  128C               	bcf	12,5	;volatile
  2688     0052                     l185:	
  2689                           ;main.c: 245:             while(!RCIF);
  2690                           
  2691     0052  1E8C               	btfss	12,5	;volatile
  2692     0053  2855               	goto	u2261
  2693     0054  2856               	goto	u2260
  2694     0055                     u2261:
  2695     0055  2852               	goto	l185
  2696     0056                     u2260:
  2697     0056                     l2777:
  2698                           
  2699                           ;main.c: 246:             if (RCREG == '1' & modo != 1){
  2700     0056  3031               	movlw	49
  2701     0057  061A               	xorwf	26,w	;volatile
  2702     0058  1D03               	btfss	3,2
  2703     0059  285B               	goto	u2271
  2704     005A  285C               	goto	u2270
  2705     005B                     u2271:
  2706     005B  2868               	goto	l2783
  2707     005C                     u2270:
  2708     005C                     l2779:
  2709     005C  0372               	decf	_modo,w
  2710     005D  0473               	iorwf	_modo+1,w
  2711     005E  1903               	btfsc	3,2
  2712     005F  2861               	goto	u2281
  2713     0060  2862               	goto	u2280
  2714     0061                     u2281:
  2715     0061  2868               	goto	l2783
  2716     0062                     u2280:
  2717     0062                     l2781:
  2718                           
  2719                           ;main.c: 247:                 writepos();
  2720     0062  120A  118A  25F8  120A  118A  	fcall	_writepos
  2721                           
  2722                           ;main.c: 248:             }
  2723     0067  29CB               	goto	l211
  2724     0068                     l2783:
  2725     0068  3031               	movlw	49
  2726     0069  061A               	xorwf	26,w	;volatile
  2727     006A  1D03               	btfss	3,2
  2728     006B  286D               	goto	u2291
  2729     006C  286E               	goto	u2290
  2730     006D                     u2291:
  2731     006D  29CB               	goto	l211
  2732     006E                     u2290:
  2733     006E                     l2785:
  2734     006E  0372               	decf	_modo,w
  2735     006F  0473               	iorwf	_modo+1,w
  2736     0070  1D03               	btfss	3,2
  2737     0071  2873               	goto	u2301
  2738     0072  2874               	goto	u2300
  2739     0073                     u2301:
  2740     0073  29CB               	goto	l211
  2741     0074                     u2300:
  2742     0074                     l2787:
  2743                           
  2744                           ;main.c: 250:                 lecpos();
  2745     0074  120A  118A  2444  120A  118A  	fcall	_lecpos
  2746     0079  29CB               	goto	l211
  2747     007A                     l191:	
  2748                           ;main.c: 253:         case 'c':
  2749                           
  2750                           
  2751                           ;main.c: 254:             PIR1bits.RCIF = 0;
  2752     007A  128C               	bcf	12,5	;volatile
  2753     007B                     l192:	
  2754                           ;main.c: 255:             while(!RCIF);
  2755                           
  2756     007B  1E8C               	btfss	12,5	;volatile
  2757     007C  287E               	goto	u2311
  2758     007D  287F               	goto	u2310
  2759     007E                     u2311:
  2760     007E  287B               	goto	l192
  2761     007F                     u2310:
  2762     007F                     l2789:
  2763                           
  2764                           ;main.c: 256:             if (RCREG == '1'){
  2765     007F  3031               	movlw	49
  2766     0080  061A               	xorwf	26,w	;volatile
  2767     0081  1D03               	btfss	3,2
  2768     0082  2884               	goto	u2321
  2769     0083  2885               	goto	u2320
  2770     0084                     u2321:
  2771     0084  288A               	goto	l2793
  2772     0085                     u2320:
  2773     0085                     l2791:
  2774                           
  2775                           ;main.c: 257:                 pos = 1;
  2776     0085  3001               	movlw	1
  2777     0086  00F0               	movwf	_pos
  2778     0087  3000               	movlw	0
  2779     0088  00F1               	movwf	_pos+1
  2780                           
  2781                           ;main.c: 258:             }
  2782     0089  28AB               	goto	l2805
  2783     008A                     l2793:
  2784     008A  3032               	movlw	50
  2785     008B  061A               	xorwf	26,w	;volatile
  2786     008C  1D03               	btfss	3,2
  2787     008D  288F               	goto	u2331
  2788     008E  2890               	goto	u2330
  2789     008F                     u2331:
  2790     008F  2895               	goto	l2797
  2791     0090                     u2330:
  2792     0090                     l2795:
  2793                           
  2794                           ;main.c: 260:                 pos = 2;
  2795     0090  3002               	movlw	2
  2796     0091  00F0               	movwf	_pos
  2797     0092  3000               	movlw	0
  2798     0093  00F1               	movwf	_pos+1
  2799                           
  2800                           ;main.c: 261:             }
  2801     0094  28AB               	goto	l2805
  2802     0095                     l2797:
  2803     0095  3033               	movlw	51
  2804     0096  061A               	xorwf	26,w	;volatile
  2805     0097  1D03               	btfss	3,2
  2806     0098  289A               	goto	u2341
  2807     0099  289B               	goto	u2340
  2808     009A                     u2341:
  2809     009A  28A0               	goto	l2801
  2810     009B                     u2340:
  2811     009B                     l2799:
  2812                           
  2813                           ;main.c: 263:                 pos = 3;
  2814     009B  3003               	movlw	3
  2815     009C  00F0               	movwf	_pos
  2816     009D  3000               	movlw	0
  2817     009E  00F1               	movwf	_pos+1
  2818                           
  2819                           ;main.c: 264:             }
  2820     009F  28AB               	goto	l2805
  2821     00A0                     l2801:
  2822     00A0  3034               	movlw	52
  2823     00A1  061A               	xorwf	26,w	;volatile
  2824     00A2  1D03               	btfss	3,2
  2825     00A3  28A5               	goto	u2351
  2826     00A4  28A6               	goto	u2350
  2827     00A5                     u2351:
  2828     00A5  28AB               	goto	l198
  2829     00A6                     u2350:
  2830     00A6                     l2803:
  2831                           
  2832                           ;main.c: 266:                 pos = 4;
  2833     00A6  3004               	movlw	4
  2834     00A7  00F0               	movwf	_pos
  2835     00A8  3000               	movlw	0
  2836     00A9  00F1               	movwf	_pos+1
  2837     00AA  28AB               	goto	l2805
  2838     00AB                     l198:
  2839     00AB                     l2805:
  2840                           
  2841                           ;main.c: 268:             LEDpos();
  2842     00AB  120A  118A  2720  120A  118A  	fcall	_LEDpos
  2843     00B0                     l2807:
  2844                           
  2845                           ;main.c: 269:             PIR1bits.RCIF = 0;
  2846     00B0  1283               	bcf	3,5	;RP0=0, select bank0
  2847     00B1  1303               	bcf	3,6	;RP1=0, select bank0
  2848     00B2  128C               	bcf	12,5	;volatile
  2849                           
  2850                           ;main.c: 270:             break;
  2851     00B3  29CB               	goto	l211
  2852     00B4                     l2809:
  2853                           
  2854                           ;main.c: 273:             if (modo == 2){
  2855     00B4  3002               	movlw	2
  2856     00B5  0672               	xorwf	_modo,w
  2857     00B6  0473               	iorwf	_modo+1,w
  2858     00B7  1D03               	btfss	3,2
  2859     00B8  28BA               	goto	u2361
  2860     00B9  28BB               	goto	u2360
  2861     00BA                     u2361:
  2862     00BA  29CB               	goto	l211
  2863     00BB                     u2360:
  2864     00BB                     l2811:
  2865                           
  2866                           ;main.c: 274:                 lecturanum();
  2867     00BB  120A  158A  2788  120A  118A  	fcall	_lecturanum
  2868                           
  2869                           ;main.c: 275:                 v1PWM = convint(cent, dec, uni);
  2870     00C0  1283               	bcf	3,5	;RP0=0, select bank0
  2871     00C1  1303               	bcf	3,6	;RP1=0, select bank0
  2872     00C2  084F               	movf	_dec,w
  2873     00C3  00A6               	movwf	convint@decenas
  2874     00C4  084D               	movf	_uni,w
  2875     00C5  00A7               	movwf	convint@unidades
  2876     00C6  084E               	movf	_cent,w
  2877     00C7  120A  118A  2659  120A  118A  	fcall	_convint
  2878     00CC  1283               	bcf	3,5	;RP0=0, select bank0
  2879     00CD  1303               	bcf	3,6	;RP1=0, select bank0
  2880     00CE  0827               	movf	?_convint+1,w
  2881     00CF  00CC               	movwf	_v1PWM+1
  2882     00D0  0826               	movf	?_convint,w
  2883     00D1  00CB               	movwf	_v1PWM
  2884                           
  2885                           ;main.c: 276:                 v1PWM = mapeo(v1PWM, 0, 180, 63, 125);
  2886     00D2  084C               	movf	_v1PWM+1,w
  2887     00D3  00B0               	movwf	mapeo@valor+1
  2888     00D4  084B               	movf	_v1PWM,w
  2889     00D5  00AF               	movwf	mapeo@valor
  2890     00D6  3000               	movlw	0
  2891     00D7  00B1               	movwf	mapeo@inmin
  2892     00D8  00B2               	movwf	mapeo@inmin+1
  2893     00D9  30B4               	movlw	180
  2894     00DA  00B3               	movwf	mapeo@inmax
  2895     00DB  3000               	movlw	0
  2896     00DC  00B4               	movwf	mapeo@inmax+1
  2897     00DD  303F               	movlw	63
  2898     00DE  00B5               	movwf	mapeo@outmin
  2899     00DF  3000               	movlw	0
  2900     00E0  00B6               	movwf	mapeo@outmin+1
  2901     00E1  307D               	movlw	125
  2902     00E2  00B7               	movwf	mapeo@outmax
  2903     00E3  3000               	movlw	0
  2904     00E4  00B8               	movwf	mapeo@outmax+1
  2905     00E5  120A  118A  26EB  120A  118A  	fcall	_mapeo
  2906     00EA  1283               	bcf	3,5	;RP0=0, select bank0
  2907     00EB  1303               	bcf	3,6	;RP1=0, select bank0
  2908     00EC  0830               	movf	?_mapeo+1,w
  2909     00ED  00CC               	movwf	_v1PWM+1
  2910     00EE  082F               	movf	?_mapeo,w
  2911     00EF  00CB               	movwf	_v1PWM
  2912     00F0  29CB               	goto	l211
  2913     00F1                     l2813:
  2914                           
  2915                           ;main.c: 281:             if (modo == 2){
  2916     00F1  3002               	movlw	2
  2917     00F2  0672               	xorwf	_modo,w
  2918     00F3  0473               	iorwf	_modo+1,w
  2919     00F4  1D03               	btfss	3,2
  2920     00F5  28F7               	goto	u2371
  2921     00F6  28F8               	goto	u2370
  2922     00F7                     u2371:
  2923     00F7  29CB               	goto	l211
  2924     00F8                     u2370:
  2925     00F8                     l2815:
  2926                           
  2927                           ;main.c: 282:                 lecturanum();
  2928     00F8  120A  158A  2788  120A  118A  	fcall	_lecturanum
  2929                           
  2930                           ;main.c: 283:                 v2PWM = convint(cent, dec, uni);
  2931     00FD  1283               	bcf	3,5	;RP0=0, select bank0
  2932     00FE  1303               	bcf	3,6	;RP1=0, select bank0
  2933     00FF  084F               	movf	_dec,w
  2934     0100  00A6               	movwf	convint@decenas
  2935     0101  084D               	movf	_uni,w
  2936     0102  00A7               	movwf	convint@unidades
  2937     0103  084E               	movf	_cent,w
  2938     0104  120A  118A  2659  120A  118A  	fcall	_convint
  2939     0109  1283               	bcf	3,5	;RP0=0, select bank0
  2940     010A  1303               	bcf	3,6	;RP1=0, select bank0
  2941     010B  0827               	movf	?_convint+1,w
  2942     010C  00CA               	movwf	_v2PWM+1
  2943     010D  0826               	movf	?_convint,w
  2944     010E  00C9               	movwf	_v2PWM
  2945                           
  2946                           ;main.c: 284:                 v2PWM = mapeo(v2PWM, 0, 180, 63, 125);
  2947     010F  084A               	movf	_v2PWM+1,w
  2948     0110  00B0               	movwf	mapeo@valor+1
  2949     0111  0849               	movf	_v2PWM,w
  2950     0112  00AF               	movwf	mapeo@valor
  2951     0113  3000               	movlw	0
  2952     0114  00B1               	movwf	mapeo@inmin
  2953     0115  00B2               	movwf	mapeo@inmin+1
  2954     0116  30B4               	movlw	180
  2955     0117  00B3               	movwf	mapeo@inmax
  2956     0118  3000               	movlw	0
  2957     0119  00B4               	movwf	mapeo@inmax+1
  2958     011A  303F               	movlw	63
  2959     011B  00B5               	movwf	mapeo@outmin
  2960     011C  3000               	movlw	0
  2961     011D  00B6               	movwf	mapeo@outmin+1
  2962     011E  307D               	movlw	125
  2963     011F  00B7               	movwf	mapeo@outmax
  2964     0120  3000               	movlw	0
  2965     0121  00B8               	movwf	mapeo@outmax+1
  2966     0122  120A  118A  26EB  120A  118A  	fcall	_mapeo
  2967     0127  1283               	bcf	3,5	;RP0=0, select bank0
  2968     0128  1303               	bcf	3,6	;RP1=0, select bank0
  2969     0129  0830               	movf	?_mapeo+1,w
  2970     012A  00CA               	movwf	_v2PWM+1
  2971     012B  082F               	movf	?_mapeo,w
  2972     012C  00C9               	movwf	_v2PWM
  2973     012D  29CB               	goto	l211
  2974     012E                     l2817:
  2975                           
  2976                           ;main.c: 288:             if (modo == 2){
  2977     012E  3002               	movlw	2
  2978     012F  0672               	xorwf	_modo,w
  2979     0130  0473               	iorwf	_modo+1,w
  2980     0131  1D03               	btfss	3,2
  2981     0132  2934               	goto	u2381
  2982     0133  2935               	goto	u2380
  2983     0134                     u2381:
  2984     0134  29CB               	goto	l211
  2985     0135                     u2380:
  2986     0135                     l2819:
  2987                           
  2988                           ;main.c: 289:                 lecturanum();
  2989     0135  120A  158A  2788  120A  118A  	fcall	_lecturanum
  2990                           
  2991                           ;main.c: 290:                 HIGHpulse0 = convint(cent, dec, uni);
  2992     013A  1283               	bcf	3,5	;RP0=0, select bank0
  2993     013B  1303               	bcf	3,6	;RP1=0, select bank0
  2994     013C  084F               	movf	_dec,w
  2995     013D  00A6               	movwf	convint@decenas
  2996     013E  084D               	movf	_uni,w
  2997     013F  00A7               	movwf	convint@unidades
  2998     0140  084E               	movf	_cent,w
  2999     0141  120A  118A  2659  120A  118A  	fcall	_convint
  3000     0146  1283               	bcf	3,5	;RP0=0, select bank0
  3001     0147  1303               	bcf	3,6	;RP1=0, select bank0
  3002     0148  0827               	movf	?_convint+1,w
  3003     0149  00F5               	movwf	_HIGHpulse0+1
  3004     014A  0826               	movf	?_convint,w
  3005     014B  00F4               	movwf	_HIGHpulse0
  3006                           
  3007                           ;main.c: 291:                 HIGHpulse0 = mapeo(HIGHpulse0, 0, 180, 9, 26);
  3008     014C  0875               	movf	_HIGHpulse0+1,w
  3009     014D  00B0               	movwf	mapeo@valor+1
  3010     014E  0874               	movf	_HIGHpulse0,w
  3011     014F  00AF               	movwf	mapeo@valor
  3012     0150  3000               	movlw	0
  3013     0151  00B1               	movwf	mapeo@inmin
  3014     0152  00B2               	movwf	mapeo@inmin+1
  3015     0153  30B4               	movlw	180
  3016     0154  00B3               	movwf	mapeo@inmax
  3017     0155  3000               	movlw	0
  3018     0156  00B4               	movwf	mapeo@inmax+1
  3019     0157  3009               	movlw	9
  3020     0158  00B5               	movwf	mapeo@outmin
  3021     0159  3000               	movlw	0
  3022     015A  00B6               	movwf	mapeo@outmin+1
  3023     015B  301A               	movlw	26
  3024     015C  00B7               	movwf	mapeo@outmax
  3025     015D  3000               	movlw	0
  3026     015E  00B8               	movwf	mapeo@outmax+1
  3027     015F  120A  118A  26EB  120A  118A  	fcall	_mapeo
  3028     0164  1283               	bcf	3,5	;RP0=0, select bank0
  3029     0165  1303               	bcf	3,6	;RP1=0, select bank0
  3030     0166  0830               	movf	?_mapeo+1,w
  3031     0167  00F5               	movwf	_HIGHpulse0+1
  3032     0168  082F               	movf	?_mapeo,w
  3033     0169  00F4               	movwf	_HIGHpulse0
  3034     016A  29CB               	goto	l211
  3035     016B                     l2821:
  3036                           
  3037                           ;main.c: 295:             if (modo == 2){
  3038     016B  3002               	movlw	2
  3039     016C  0672               	xorwf	_modo,w
  3040     016D  0473               	iorwf	_modo+1,w
  3041     016E  1D03               	btfss	3,2
  3042     016F  2971               	goto	u2391
  3043     0170  2972               	goto	u2390
  3044     0171                     u2391:
  3045     0171  29CB               	goto	l211
  3046     0172                     u2390:
  3047     0172                     l2823:
  3048                           
  3049                           ;main.c: 296:                 lecturanum();
  3050     0172  120A  158A  2788  120A  118A  	fcall	_lecturanum
  3051                           
  3052                           ;main.c: 297:                 HIGHpulse1 = convint(cent, dec, uni);
  3053     0177  1283               	bcf	3,5	;RP0=0, select bank0
  3054     0178  1303               	bcf	3,6	;RP1=0, select bank0
  3055     0179  084F               	movf	_dec,w
  3056     017A  00A6               	movwf	convint@decenas
  3057     017B  084D               	movf	_uni,w
  3058     017C  00A7               	movwf	convint@unidades
  3059     017D  084E               	movf	_cent,w
  3060     017E  120A  118A  2659  120A  118A  	fcall	_convint
  3061     0183  1283               	bcf	3,5	;RP0=0, select bank0
  3062     0184  1303               	bcf	3,6	;RP1=0, select bank0
  3063     0185  0827               	movf	?_convint+1,w
  3064     0186  00C4               	movwf	_HIGHpulse1+1
  3065     0187  0826               	movf	?_convint,w
  3066     0188  00C3               	movwf	_HIGHpulse1
  3067                           
  3068                           ;main.c: 298:                 HIGHpulse1 = mapeo(HIGHpulse1, 0, 180, 9, 20);
  3069     0189  0844               	movf	_HIGHpulse1+1,w
  3070     018A  00B0               	movwf	mapeo@valor+1
  3071     018B  0843               	movf	_HIGHpulse1,w
  3072     018C  00AF               	movwf	mapeo@valor
  3073     018D  3000               	movlw	0
  3074     018E  00B1               	movwf	mapeo@inmin
  3075     018F  00B2               	movwf	mapeo@inmin+1
  3076     0190  30B4               	movlw	180
  3077     0191  00B3               	movwf	mapeo@inmax
  3078     0192  3000               	movlw	0
  3079     0193  00B4               	movwf	mapeo@inmax+1
  3080     0194  3009               	movlw	9
  3081     0195  00B5               	movwf	mapeo@outmin
  3082     0196  3000               	movlw	0
  3083     0197  00B6               	movwf	mapeo@outmin+1
  3084     0198  3014               	movlw	20
  3085     0199  00B7               	movwf	mapeo@outmax
  3086     019A  3000               	movlw	0
  3087     019B  00B8               	movwf	mapeo@outmax+1
  3088     019C  120A  118A  26EB  120A  118A  	fcall	_mapeo
  3089     01A1  1283               	bcf	3,5	;RP0=0, select bank0
  3090     01A2  1303               	bcf	3,6	;RP1=0, select bank0
  3091     01A3  0830               	movf	?_mapeo+1,w
  3092     01A4  00C4               	movwf	_HIGHpulse1+1
  3093     01A5  082F               	movf	?_mapeo,w
  3094     01A6  00C3               	movwf	_HIGHpulse1
  3095     01A7  29CB               	goto	l211
  3096     01A8                     l210:	
  3097                           ;main.c: 301:         default:
  3098                           
  3099                           
  3100                           ;main.c: 302:             PIR1bits.RCIF = 0;
  3101     01A8  128C               	bcf	12,5	;volatile
  3102                           
  3103                           ;main.c: 303:     }
  3104     01A9  29CB               	goto	l211
  3105     01AA                     l2825:
  3106     01AA  1283               	bcf	3,5	;RP0=0, select bank0
  3107     01AB  1303               	bcf	3,6	;RP1=0, select bank0
  3108     01AC  081A               	movf	26,w	;volatile
  3109     01AD  00BB               	movwf	??_adafruitrec
  3110     01AE  01BC               	clrf	??_adafruitrec+1
  3111                           
  3112                           ; Switch on 2 bytes has been partitioned into a top level switch of size 1, and 1 sub-sw
      +                          itches
  3113                           ; Switch size 1, requested type "simple"
  3114                           ; Number of cases is 1, Range of values is 0 to 0
  3115                           ; switch strategies available:
  3116                           ; Name         Instructions Cycles
  3117                           ; simple_byte            4     3 (average)
  3118                           ; direct_byte           11     8 (fixed)
  3119                           ; jumptable            260     6 (fixed)
  3120                           ;	Chosen strategy is simple_byte
  3121     01AF  083C               	movf	??_adafruitrec+1,w
  3122     01B0  3A00               	xorlw	0	; case 0
  3123     01B1  1903               	skipnz
  3124     01B2  29B4               	goto	l3039
  3125     01B3  29A8               	goto	l210
  3126     01B4                     l3039:
  3127                           
  3128                           ; Switch size 1, requested type "simple"
  3129                           ; Number of cases is 7, Range of values is 97 to 103
  3130                           ; switch strategies available:
  3131                           ; Name         Instructions Cycles
  3132                           ; simple_byte           22    12 (average)
  3133                           ; direct_byte           32    11 (fixed)
  3134                           ; jumptable            263     9 (fixed)
  3135                           ;	Chosen strategy is simple_byte
  3136     01B4  083B               	movf	??_adafruitrec,w
  3137     01B5  3A61               	xorlw	97	; case 97
  3138     01B6  1903               	skipnz
  3139     01B7  2827               	goto	l176
  3140     01B8  3A03               	xorlw	3	; case 98
  3141     01B9  1903               	skipnz
  3142     01BA  2851               	goto	l184
  3143     01BB  3A01               	xorlw	1	; case 99
  3144     01BC  1903               	skipnz
  3145     01BD  287A               	goto	l191
  3146     01BE  3A07               	xorlw	7	; case 100
  3147     01BF  1903               	skipnz
  3148     01C0  28B4               	goto	l2809
  3149     01C1  3A01               	xorlw	1	; case 101
  3150     01C2  1903               	skipnz
  3151     01C3  28F1               	goto	l2813
  3152     01C4  3A03               	xorlw	3	; case 102
  3153     01C5  1903               	skipnz
  3154     01C6  292E               	goto	l2817
  3155     01C7  3A01               	xorlw	1	; case 103
  3156     01C8  1903               	skipnz
  3157     01C9  296B               	goto	l2821
  3158     01CA  29A8               	goto	l210
  3159     01CB                     l211:
  3160     01CB  0008               	return
  3161     01CC                     __end_of_adafruitrec:
  3162                           
  3163                           	psect	text10
  3164     05F8                     __ptext10:	
  3165 ;; *************** function _writepos *****************
  3166 ;; Defined at:
  3167 ;;		line 342 in file "main.c"
  3168 ;; Parameters:    Size  Location     Type
  3169 ;;		None
  3170 ;; Auto vars:     Size  Location     Type
  3171 ;;  addr            2    2[BANK0 ] int 
  3172 ;; Return value:  Size  Location     Type
  3173 ;;                  1    wreg      void 
  3174 ;; Registers used:
  3175 ;;		wreg, status,2, status,0, pclath, cstack
  3176 ;; Tracked objects:
  3177 ;;		On entry : 0/0
  3178 ;;		On exit  : 0/0
  3179 ;;		Unchanged: 0/0
  3180 ;; Data sizes:     COMMON   BANK0   BANK1   BANK3   BANK2
  3181 ;;      Params:         0       0       0       0       0
  3182 ;;      Locals:         0       2       0       0       0
  3183 ;;      Temps:          0       0       0       0       0
  3184 ;;      Totals:         0       2       0       0       0
  3185 ;;Total ram usage:        2 bytes
  3186 ;; Hardware stack levels used: 1
  3187 ;; Hardware stack levels required when called: 3
  3188 ;; This function calls:
  3189 ;;		_write_EEPROM
  3190 ;; This function is called by:
  3191 ;;		_main
  3192 ;;		_adafruitrec
  3193 ;; This function uses a non-reentrant model
  3194 ;;
  3195                           
  3196     05F8                     _writepos:	
  3197                           ;psect for function _writepos
  3198                           
  3199     05F8                     l2609:	
  3200                           ;incstack = 0
  3201                           ; Regs used in _writepos: [wreg+status,2+status,0+pclath+cstack]
  3202                           
  3203                           
  3204                           ;main.c: 343:     int addr;;main.c: 344:     if (pos == 1){
  3205     05F8  0370               	decf	_pos,w
  3206     05F9  0471               	iorwf	_pos+1,w
  3207     05FA  1D03               	btfss	3,2
  3208     05FB  2DFD               	goto	u2021
  3209     05FC  2DFE               	goto	u2020
  3210     05FD                     u2021:
  3211     05FD  2E03               	goto	l2613
  3212     05FE                     u2020:
  3213     05FE                     l2611:
  3214                           
  3215                           ;main.c: 345:         addr = 0;}
  3216     05FE  1283               	bcf	3,5	;RP0=0, select bank0
  3217     05FF  1303               	bcf	3,6	;RP1=0, select bank0
  3218     0600  01A2               	clrf	writepos@addr
  3219     0601  01A3               	clrf	writepos@addr+1
  3220     0602  2E2D               	goto	l2625
  3221     0603                     l2613:
  3222     0603  3002               	movlw	2
  3223     0604  0670               	xorwf	_pos,w
  3224     0605  0471               	iorwf	_pos+1,w
  3225     0606  1D03               	btfss	3,2
  3226     0607  2E09               	goto	u2031
  3227     0608  2E0A               	goto	u2030
  3228     0609                     u2031:
  3229     0609  2E11               	goto	l2617
  3230     060A                     u2030:
  3231     060A                     l2615:
  3232                           
  3233                           ;main.c: 347:         addr = 4;}
  3234     060A  3004               	movlw	4
  3235     060B  1283               	bcf	3,5	;RP0=0, select bank0
  3236     060C  1303               	bcf	3,6	;RP1=0, select bank0
  3237     060D  00A2               	movwf	writepos@addr
  3238     060E  3000               	movlw	0
  3239     060F  00A3               	movwf	writepos@addr+1
  3240     0610  2E2D               	goto	l2625
  3241     0611                     l2617:
  3242     0611  3003               	movlw	3
  3243     0612  0670               	xorwf	_pos,w
  3244     0613  0471               	iorwf	_pos+1,w
  3245     0614  1D03               	btfss	3,2
  3246     0615  2E17               	goto	u2041
  3247     0616  2E18               	goto	u2040
  3248     0617                     u2041:
  3249     0617  2E1F               	goto	l2621
  3250     0618                     u2040:
  3251     0618                     l2619:
  3252                           
  3253                           ;main.c: 349:         addr = 8;}
  3254     0618  3008               	movlw	8
  3255     0619  1283               	bcf	3,5	;RP0=0, select bank0
  3256     061A  1303               	bcf	3,6	;RP1=0, select bank0
  3257     061B  00A2               	movwf	writepos@addr
  3258     061C  3000               	movlw	0
  3259     061D  00A3               	movwf	writepos@addr+1
  3260     061E  2E2D               	goto	l2625
  3261     061F                     l2621:
  3262     061F  3004               	movlw	4
  3263     0620  0670               	xorwf	_pos,w
  3264     0621  0471               	iorwf	_pos+1,w
  3265     0622  1D03               	btfss	3,2
  3266     0623  2E25               	goto	u2051
  3267     0624  2E26               	goto	u2050
  3268     0625                     u2051:
  3269     0625  2E2D               	goto	l234
  3270     0626                     u2050:
  3271     0626                     l2623:
  3272                           
  3273                           ;main.c: 351:         addr = 12;}
  3274     0626  300C               	movlw	12
  3275     0627  1283               	bcf	3,5	;RP0=0, select bank0
  3276     0628  1303               	bcf	3,6	;RP1=0, select bank0
  3277     0629  00A2               	movwf	writepos@addr
  3278     062A  3000               	movlw	0
  3279     062B  00A3               	movwf	writepos@addr+1
  3280     062C  2E2D               	goto	l2625
  3281     062D                     l234:
  3282     062D                     l2625:
  3283                           
  3284                           ;main.c: 352:     write_EEPROM(addr, v1PWM);
  3285     062D  1283               	bcf	3,5	;RP0=0, select bank0
  3286     062E  1303               	bcf	3,6	;RP1=0, select bank0
  3287     062F  084B               	movf	_v1PWM,w
  3288     0630  00A0               	movwf	write_EEPROM@data
  3289     0631  0822               	movf	writepos@addr,w
  3290     0632  120A  158A  27BC  120A  118A  	fcall	_write_EEPROM
  3291     0637                     l2627:
  3292                           
  3293                           ;main.c: 353:     write_EEPROM((addr + 1), v2PWM);
  3294     0637  1283               	bcf	3,5	;RP0=0, select bank0
  3295     0638  1303               	bcf	3,6	;RP1=0, select bank0
  3296     0639  0849               	movf	_v2PWM,w
  3297     063A  00A0               	movwf	write_EEPROM@data
  3298     063B  0822               	movf	writepos@addr,w
  3299     063C  3E01               	addlw	1
  3300     063D  120A  158A  27BC  120A  118A  	fcall	_write_EEPROM
  3301     0642                     l2629:
  3302                           
  3303                           ;main.c: 354:     write_EEPROM((addr + 2), HIGHpulse0);
  3304     0642  0874               	movf	_HIGHpulse0,w
  3305     0643  1283               	bcf	3,5	;RP0=0, select bank0
  3306     0644  1303               	bcf	3,6	;RP1=0, select bank0
  3307     0645  00A0               	movwf	write_EEPROM@data
  3308     0646  0822               	movf	writepos@addr,w
  3309     0647  3E02               	addlw	2
  3310     0648  120A  158A  27BC  120A  118A  	fcall	_write_EEPROM
  3311     064D                     l2631:
  3312                           
  3313                           ;main.c: 355:     write_EEPROM((addr + 3), HIGHpulse1);
  3314     064D  1283               	bcf	3,5	;RP0=0, select bank0
  3315     064E  1303               	bcf	3,6	;RP1=0, select bank0
  3316     064F  0843               	movf	_HIGHpulse1,w
  3317     0650  00A0               	movwf	write_EEPROM@data
  3318     0651  0822               	movf	writepos@addr,w
  3319     0652  3E03               	addlw	3
  3320     0653  120A  158A  27BC  120A  118A  	fcall	_write_EEPROM
  3321     0658                     l238:
  3322     0658  0008               	return
  3323     0659                     __end_of_writepos:
  3324                           
  3325                           	psect	text11
  3326     0FBC                     __ptext11:	
  3327 ;; *************** function _write_EEPROM *****************
  3328 ;; Defined at:
  3329 ;;		line 10 in file "ReadWrite.c"
  3330 ;; Parameters:    Size  Location     Type
  3331 ;;  address         1    wreg     unsigned char 
  3332 ;;  data            1    0[BANK0 ] unsigned char 
  3333 ;; Auto vars:     Size  Location     Type
  3334 ;;  address         1    1[BANK0 ] unsigned char 
  3335 ;; Return value:  Size  Location     Type
  3336 ;;                  1    wreg      void 
  3337 ;; Registers used:
  3338 ;;		wreg
  3339 ;; Tracked objects:
  3340 ;;		On entry : 0/0
  3341 ;;		On exit  : 0/0
  3342 ;;		Unchanged: 0/0
  3343 ;; Data sizes:     COMMON   BANK0   BANK1   BANK3   BANK2
  3344 ;;      Params:         0       1       0       0       0
  3345 ;;      Locals:         0       1       0       0       0
  3346 ;;      Temps:          0       0       0       0       0
  3347 ;;      Totals:         0       2       0       0       0
  3348 ;;Total ram usage:        2 bytes
  3349 ;; Hardware stack levels used: 1
  3350 ;; Hardware stack levels required when called: 2
  3351 ;; This function calls:
  3352 ;;		Nothing
  3353 ;; This function is called by:
  3354 ;;		_writepos
  3355 ;; This function uses a non-reentrant model
  3356 ;;
  3357                           
  3358     0FBC                     _write_EEPROM:	
  3359                           ;psect for function _write_EEPROM
  3360                           
  3361                           
  3362                           ;incstack = 0
  3363                           ; Regs used in _write_EEPROM: [wreg]
  3364                           ;write_EEPROM@address stored from wreg
  3365     0FBC  1283               	bcf	3,5	;RP0=0, select bank0
  3366     0FBD  1303               	bcf	3,6	;RP1=0, select bank0
  3367     0FBE  00A1               	movwf	write_EEPROM@address
  3368     0FBF                     l2455:
  3369     0FBF                     l390:	
  3370                           ;ReadWrite.c: 11:     while(WR);
  3371                           
  3372     0FBF  1683               	bsf	3,5	;RP0=1, select bank3
  3373     0FC0  1703               	bsf	3,6	;RP1=1, select bank3
  3374     0FC1  188C               	btfsc	12,1	;volsfr
  3375     0FC2  2FC4               	goto	u1851
  3376     0FC3  2FC5               	goto	u1850
  3377     0FC4                     u1851:
  3378     0FC4  2FBF               	goto	l390
  3379     0FC5                     u1850:
  3380     0FC5                     l2457:
  3381                           
  3382                           ;ReadWrite.c: 12:     EEADR = address;
  3383     0FC5  1283               	bcf	3,5	;RP0=0, select bank0
  3384     0FC6  1303               	bcf	3,6	;RP1=0, select bank0
  3385     0FC7  0821               	movf	write_EEPROM@address,w
  3386     0FC8  1283               	bcf	3,5	;RP0=0, select bank2
  3387     0FC9  1703               	bsf	3,6	;RP1=1, select bank2
  3388     0FCA  008D               	movwf	13	;volatile
  3389                           
  3390                           ;ReadWrite.c: 13:     EEDAT = data;
  3391     0FCB  1283               	bcf	3,5	;RP0=0, select bank0
  3392     0FCC  1303               	bcf	3,6	;RP1=0, select bank0
  3393     0FCD  0820               	movf	write_EEPROM@data,w
  3394     0FCE  1283               	bcf	3,5	;RP0=0, select bank2
  3395     0FCF  1703               	bsf	3,6	;RP1=1, select bank2
  3396     0FD0  008C               	movwf	12	;volatile
  3397     0FD1                     l2459:
  3398                           
  3399                           ;ReadWrite.c: 14:     EECON1bits.EEPGD = 0;
  3400     0FD1  1683               	bsf	3,5	;RP0=1, select bank3
  3401     0FD2  1703               	bsf	3,6	;RP1=1, select bank3
  3402     0FD3  138C               	bcf	12,7	;volsfr
  3403     0FD4                     l2461:
  3404                           
  3405                           ;ReadWrite.c: 15:     EECON1bits.WREN = 1;
  3406     0FD4  150C               	bsf	12,2	;volsfr
  3407     0FD5                     l2463:
  3408                           
  3409                           ;ReadWrite.c: 16:     INTCONbits.GIE = 0;
  3410     0FD5  138B               	bcf	11,7	;volatile
  3411                           
  3412                           ;ReadWrite.c: 17:     EECON2 = 0x55;
  3413     0FD6  3055               	movlw	85
  3414     0FD7  008D               	movwf	13	;volsfr
  3415                           
  3416                           ;ReadWrite.c: 18:     EECON2 = 0xAA;
  3417     0FD8  30AA               	movlw	170
  3418     0FD9  008D               	movwf	13	;volsfr
  3419     0FDA                     l2465:
  3420                           
  3421                           ;ReadWrite.c: 19:     EECON1bits.WR = 1;
  3422     0FDA  148C               	bsf	12,1	;volsfr
  3423     0FDB                     l2467:
  3424                           
  3425                           ;ReadWrite.c: 20:     EECON1bits.WREN = 0;
  3426     0FDB  110C               	bcf	12,2	;volsfr
  3427     0FDC                     l2469:
  3428                           
  3429                           ;ReadWrite.c: 22:     INTCONbits.GIE = 1;
  3430     0FDC  178B               	bsf	11,7	;volatile
  3431     0FDD                     l393:
  3432     0FDD  0008               	return
  3433     0FDE                     __end_of_write_EEPROM:
  3434                           
  3435                           	psect	text12
  3436     06EB                     __ptext12:	
  3437 ;; *************** function _mapeo *****************
  3438 ;; Defined at:
  3439 ;;		line 56 in file "OpNum.c"
  3440 ;; Parameters:    Size  Location     Type
  3441 ;;  valor           2   15[BANK0 ] int 
  3442 ;;  inmin           2   17[BANK0 ] int 
  3443 ;;  inmax           2   19[BANK0 ] int 
  3444 ;;  outmin          2   21[BANK0 ] int 
  3445 ;;  outmax          2   23[BANK0 ] int 
  3446 ;; Auto vars:     Size  Location     Type
  3447 ;;  resultado       2   25[BANK0 ] unsigned int 
  3448 ;; Return value:  Size  Location     Type
  3449 ;;                  2   15[BANK0 ] unsigned int 
  3450 ;; Registers used:
  3451 ;;		wreg, status,2, status,0, pclath, cstack
  3452 ;; Tracked objects:
  3453 ;;		On entry : 0/0
  3454 ;;		On exit  : 0/0
  3455 ;;		Unchanged: 0/0
  3456 ;; Data sizes:     COMMON   BANK0   BANK1   BANK3   BANK2
  3457 ;;      Params:         0      10       0       0       0
  3458 ;;      Locals:         0       2       0       0       0
  3459 ;;      Temps:          0       0       0       0       0
  3460 ;;      Totals:         0      12       0       0       0
  3461 ;;Total ram usage:       12 bytes
  3462 ;; Hardware stack levels used: 1
  3463 ;; Hardware stack levels required when called: 3
  3464 ;; This function calls:
  3465 ;;		___awdiv
  3466 ;;		___wmul
  3467 ;; This function is called by:
  3468 ;;		_adafruitrec
  3469 ;;		_controlservos
  3470 ;; This function uses a non-reentrant model
  3471 ;;
  3472                           
  3473     06EB                     _mapeo:	
  3474                           ;psect for function _mapeo
  3475                           
  3476     06EB                     l2675:	
  3477                           ;incstack = 0
  3478                           ; Regs used in _mapeo: [wreg+status,2+status,0+pclath+cstack]
  3479                           
  3480                           
  3481                           ;OpNum.c: 57:     unsigned int resultado;;OpNum.c: 58:     resultado = (((outmax-outmin)
      +                          *(valor-inmin)/(inmax)) + outmin);
  3482     06EB  1283               	bcf	3,5	;RP0=0, select bank0
  3483     06EC  1303               	bcf	3,6	;RP1=0, select bank0
  3484     06ED  0834               	movf	mapeo@inmax+1,w
  3485     06EE  00A7               	movwf	___awdiv@divisor+1
  3486     06EF  0833               	movf	mapeo@inmax,w
  3487     06F0  00A6               	movwf	___awdiv@divisor
  3488     06F1  0835               	movf	mapeo@outmin,w
  3489     06F2  0237               	subwf	mapeo@outmax,w
  3490     06F3  00A0               	movwf	___wmul@multiplier
  3491     06F4  0836               	movf	mapeo@outmin+1,w
  3492     06F5  1C03               	skipc
  3493     06F6  0A36               	incf	mapeo@outmin+1,w
  3494     06F7  0238               	subwf	mapeo@outmax+1,w
  3495     06F8  00A1               	movwf	___wmul@multiplier+1
  3496     06F9  0831               	movf	mapeo@inmin,w
  3497     06FA  022F               	subwf	mapeo@valor,w
  3498     06FB  00A2               	movwf	___wmul@multiplicand
  3499     06FC  0832               	movf	mapeo@inmin+1,w
  3500     06FD  1C03               	skipc
  3501     06FE  0A32               	incf	mapeo@inmin+1,w
  3502     06FF  0230               	subwf	mapeo@valor+1,w
  3503     0700  00A3               	movwf	___wmul@multiplicand+1
  3504     0701  120A  118A  2782  120A  118A  	fcall	___wmul
  3505     0706  1283               	bcf	3,5	;RP0=0, select bank0
  3506     0707  1303               	bcf	3,6	;RP1=0, select bank0
  3507     0708  0821               	movf	?___wmul+1,w
  3508     0709  00A9               	movwf	___awdiv@dividend+1
  3509     070A  0820               	movf	?___wmul,w
  3510     070B  00A8               	movwf	___awdiv@dividend
  3511     070C  120A  118A  2527  120A  118A  	fcall	___awdiv
  3512     0711  1283               	bcf	3,5	;RP0=0, select bank0
  3513     0712  1303               	bcf	3,6	;RP1=0, select bank0
  3514     0713  0835               	movf	mapeo@outmin,w
  3515     0714  0726               	addwf	?___awdiv,w
  3516     0715  00B9               	movwf	mapeo@resultado
  3517     0716  0836               	movf	mapeo@outmin+1,w
  3518     0717  1803               	skipnc
  3519     0718  0A36               	incf	mapeo@outmin+1,w
  3520     0719  0727               	addwf	?___awdiv+1,w
  3521     071A  00BA               	movwf	mapeo@resultado+1
  3522     071B                     l2677:
  3523                           
  3524                           ;OpNum.c: 59:     return resultado;
  3525     071B  083A               	movf	mapeo@resultado+1,w
  3526     071C  00B0               	movwf	?_mapeo+1
  3527     071D  0839               	movf	mapeo@resultado,w
  3528     071E  00AF               	movwf	?_mapeo
  3529     071F                     l373:
  3530     071F  0008               	return
  3531     0720                     __end_of_mapeo:
  3532                           
  3533                           	psect	text13
  3534     0527                     __ptext13:	
  3535 ;; *************** function ___awdiv *****************
  3536 ;; Defined at:
  3537 ;;		line 5 in file "C:\Program Files\Microchip\xc8\v2.40\pic\sources\c90\common\awdiv.c"
  3538 ;; Parameters:    Size  Location     Type
  3539 ;;  divisor         2    6[BANK0 ] int 
  3540 ;;  dividend        2    8[BANK0 ] int 
  3541 ;; Auto vars:     Size  Location     Type
  3542 ;;  quotient        2   13[BANK0 ] int 
  3543 ;;  sign            1   12[BANK0 ] unsigned char 
  3544 ;;  counter         1   11[BANK0 ] unsigned char 
  3545 ;; Return value:  Size  Location     Type
  3546 ;;                  2    6[BANK0 ] int 
  3547 ;; Registers used:
  3548 ;;		wreg, status,2, status,0
  3549 ;; Tracked objects:
  3550 ;;		On entry : 0/0
  3551 ;;		On exit  : 0/0
  3552 ;;		Unchanged: 0/0
  3553 ;; Data sizes:     COMMON   BANK0   BANK1   BANK3   BANK2
  3554 ;;      Params:         0       4       0       0       0
  3555 ;;      Locals:         0       4       0       0       0
  3556 ;;      Temps:          0       1       0       0       0
  3557 ;;      Totals:         0       9       0       0       0
  3558 ;;Total ram usage:        9 bytes
  3559 ;; Hardware stack levels used: 1
  3560 ;; Hardware stack levels required when called: 2
  3561 ;; This function calls:
  3562 ;;		Nothing
  3563 ;; This function is called by:
  3564 ;;		_mapeo
  3565 ;; This function uses a non-reentrant model
  3566 ;;
  3567                           
  3568     0527                     ___awdiv:	
  3569                           ;psect for function ___awdiv
  3570                           
  3571     0527                     l1843:	
  3572                           ;incstack = 0
  3573                           ; Regs used in ___awdiv: [wreg+status,2+status,0]
  3574                           
  3575     0527  1283               	bcf	3,5	;RP0=0, select bank0
  3576     0528  1303               	bcf	3,6	;RP1=0, select bank0
  3577     0529  01AC               	clrf	___awdiv@sign
  3578     052A                     l1845:
  3579     052A  1FA7               	btfss	___awdiv@divisor+1,7
  3580     052B  2D2D               	goto	u1101
  3581     052C  2D2E               	goto	u1100
  3582     052D                     u1101:
  3583     052D  2D35               	goto	l1851
  3584     052E                     u1100:
  3585     052E                     l1847:
  3586     052E  09A6               	comf	___awdiv@divisor,f
  3587     052F  09A7               	comf	___awdiv@divisor+1,f
  3588     0530  0AA6               	incf	___awdiv@divisor,f
  3589     0531  1903               	skipnz
  3590     0532  0AA7               	incf	___awdiv@divisor+1,f
  3591     0533                     l1849:
  3592     0533  01AC               	clrf	___awdiv@sign
  3593     0534  0AAC               	incf	___awdiv@sign,f
  3594     0535                     l1851:
  3595     0535  1FA9               	btfss	___awdiv@dividend+1,7
  3596     0536  2D38               	goto	u1111
  3597     0537  2D39               	goto	u1110
  3598     0538                     u1111:
  3599     0538  2D42               	goto	l1857
  3600     0539                     u1110:
  3601     0539                     l1853:
  3602     0539  09A8               	comf	___awdiv@dividend,f
  3603     053A  09A9               	comf	___awdiv@dividend+1,f
  3604     053B  0AA8               	incf	___awdiv@dividend,f
  3605     053C  1903               	skipnz
  3606     053D  0AA9               	incf	___awdiv@dividend+1,f
  3607     053E                     l1855:
  3608     053E  3001               	movlw	1
  3609     053F  00AA               	movwf	??___awdiv
  3610     0540  082A               	movf	??___awdiv,w
  3611     0541  06AC               	xorwf	___awdiv@sign,f
  3612     0542                     l1857:
  3613     0542  01AD               	clrf	___awdiv@quotient
  3614     0543  01AE               	clrf	___awdiv@quotient+1
  3615     0544                     l1859:
  3616     0544  0826               	movf	___awdiv@divisor,w
  3617     0545  0427               	iorwf	___awdiv@divisor+1,w
  3618     0546  1903               	btfsc	3,2
  3619     0547  2D49               	goto	u1121
  3620     0548  2D4A               	goto	u1120
  3621     0549                     u1121:
  3622     0549  2D81               	goto	l1879
  3623     054A                     u1120:
  3624     054A                     l1861:
  3625     054A  01AB               	clrf	___awdiv@counter
  3626     054B  0AAB               	incf	___awdiv@counter,f
  3627     054C  2D58               	goto	l1867
  3628     054D                     l1863:
  3629     054D  3001               	movlw	1
  3630     054E                     u1135:
  3631     054E  1003               	clrc
  3632     054F  0DA6               	rlf	___awdiv@divisor,f
  3633     0550  0DA7               	rlf	___awdiv@divisor+1,f
  3634     0551  3EFF               	addlw	-1
  3635     0552  1D03               	skipz
  3636     0553  2D4E               	goto	u1135
  3637     0554                     l1865:
  3638     0554  3001               	movlw	1
  3639     0555  00AA               	movwf	??___awdiv
  3640     0556  082A               	movf	??___awdiv,w
  3641     0557  07AB               	addwf	___awdiv@counter,f
  3642     0558                     l1867:
  3643     0558  1FA7               	btfss	___awdiv@divisor+1,7
  3644     0559  2D5B               	goto	u1141
  3645     055A  2D5C               	goto	u1140
  3646     055B                     u1141:
  3647     055B  2D4D               	goto	l1863
  3648     055C                     u1140:
  3649     055C                     l1869:
  3650     055C  3001               	movlw	1
  3651     055D                     u1155:
  3652     055D  1003               	clrc
  3653     055E  0DAD               	rlf	___awdiv@quotient,f
  3654     055F  0DAE               	rlf	___awdiv@quotient+1,f
  3655     0560  3EFF               	addlw	-1
  3656     0561  1D03               	skipz
  3657     0562  2D5D               	goto	u1155
  3658     0563  0827               	movf	___awdiv@divisor+1,w
  3659     0564  0229               	subwf	___awdiv@dividend+1,w
  3660     0565  1D03               	skipz
  3661     0566  2D69               	goto	u1165
  3662     0567  0826               	movf	___awdiv@divisor,w
  3663     0568  0228               	subwf	___awdiv@dividend,w
  3664     0569                     u1165:
  3665     0569  1C03               	skipc
  3666     056A  2D6C               	goto	u1161
  3667     056B  2D6D               	goto	u1160
  3668     056C                     u1161:
  3669     056C  2D74               	goto	l1875
  3670     056D                     u1160:
  3671     056D                     l1871:
  3672     056D  0826               	movf	___awdiv@divisor,w
  3673     056E  02A8               	subwf	___awdiv@dividend,f
  3674     056F  0827               	movf	___awdiv@divisor+1,w
  3675     0570  1C03               	skipc
  3676     0571  03A9               	decf	___awdiv@dividend+1,f
  3677     0572  02A9               	subwf	___awdiv@dividend+1,f
  3678     0573                     l1873:
  3679     0573  142D               	bsf	___awdiv@quotient,0
  3680     0574                     l1875:
  3681     0574  3001               	movlw	1
  3682     0575                     u1175:
  3683     0575  1003               	clrc
  3684     0576  0CA7               	rrf	___awdiv@divisor+1,f
  3685     0577  0CA6               	rrf	___awdiv@divisor,f
  3686     0578  3EFF               	addlw	-1
  3687     0579  1D03               	skipz
  3688     057A  2D75               	goto	u1175
  3689     057B                     l1877:
  3690     057B  3001               	movlw	1
  3691     057C  02AB               	subwf	___awdiv@counter,f
  3692     057D  1D03               	btfss	3,2
  3693     057E  2D80               	goto	u1181
  3694     057F  2D81               	goto	u1180
  3695     0580                     u1181:
  3696     0580  2D5C               	goto	l1869
  3697     0581                     u1180:
  3698     0581                     l1879:
  3699     0581  082C               	movf	___awdiv@sign,w
  3700     0582  1903               	btfsc	3,2
  3701     0583  2D85               	goto	u1191
  3702     0584  2D86               	goto	u1190
  3703     0585                     u1191:
  3704     0585  2D8B               	goto	l1883
  3705     0586                     u1190:
  3706     0586                     l1881:
  3707     0586  09AD               	comf	___awdiv@quotient,f
  3708     0587  09AE               	comf	___awdiv@quotient+1,f
  3709     0588  0AAD               	incf	___awdiv@quotient,f
  3710     0589  1903               	skipnz
  3711     058A  0AAE               	incf	___awdiv@quotient+1,f
  3712     058B                     l1883:
  3713     058B  082E               	movf	___awdiv@quotient+1,w
  3714     058C  00A7               	movwf	?___awdiv+1
  3715     058D  082D               	movf	___awdiv@quotient,w
  3716     058E  00A6               	movwf	?___awdiv
  3717     058F                     l638:
  3718     058F  0008               	return
  3719     0590                     __end_of___awdiv:
  3720                           
  3721                           	psect	text14
  3722     0F88                     __ptext14:	
  3723 ;; *************** function _lecturanum *****************
  3724 ;; Defined at:
  3725 ;;		line 377 in file "main.c"
  3726 ;; Parameters:    Size  Location     Type
  3727 ;;		None
  3728 ;; Auto vars:     Size  Location     Type
  3729 ;;		None
  3730 ;; Return value:  Size  Location     Type
  3731 ;;                  1    wreg      void 
  3732 ;; Registers used:
  3733 ;;		wreg
  3734 ;; Tracked objects:
  3735 ;;		On entry : 0/0
  3736 ;;		On exit  : 0/0
  3737 ;;		Unchanged: 0/0
  3738 ;; Data sizes:     COMMON   BANK0   BANK1   BANK3   BANK2
  3739 ;;      Params:         0       0       0       0       0
  3740 ;;      Locals:         0       0       0       0       0
  3741 ;;      Temps:          0       0       0       0       0
  3742 ;;      Totals:         0       0       0       0       0
  3743 ;;Total ram usage:        0 bytes
  3744 ;; Hardware stack levels used: 1
  3745 ;; Hardware stack levels required when called: 2
  3746 ;; This function calls:
  3747 ;;		Nothing
  3748 ;; This function is called by:
  3749 ;;		_adafruitrec
  3750 ;; This function uses a non-reentrant model
  3751 ;;
  3752                           
  3753     0F88                     _lecturanum:	
  3754                           ;psect for function _lecturanum
  3755                           
  3756     0F88                     l2657:	
  3757                           ;incstack = 0
  3758                           ; Regs used in _lecturanum: [wreg]
  3759                           
  3760                           
  3761                           ;main.c: 378:     PIR1bits.RCIF = 0;
  3762     0F88  1283               	bcf	3,5	;RP0=0, select bank0
  3763     0F89  1303               	bcf	3,6	;RP1=0, select bank0
  3764     0F8A  128C               	bcf	12,5	;volatile
  3765     0F8B                     l251:	
  3766                           ;main.c: 379:     while(!RCIF);
  3767                           
  3768     0F8B  1E8C               	btfss	12,5	;volatile
  3769     0F8C  2F8E               	goto	u2101
  3770     0F8D  2F8F               	goto	u2100
  3771     0F8E                     u2101:
  3772     0F8E  2F8B               	goto	l251
  3773     0F8F                     u2100:
  3774     0F8F                     l2659:
  3775                           
  3776                           ;main.c: 380:     cent = RCREG;
  3777     0F8F  081A               	movf	26,w	;volatile
  3778     0F90  00CE               	movwf	_cent
  3779     0F91                     l2661:
  3780                           
  3781                           ;main.c: 381:     PIR1bits.RCIF = 0;
  3782     0F91  128C               	bcf	12,5	;volatile
  3783     0F92                     l254:	
  3784                           ;main.c: 382:     while(!RCIF);
  3785                           
  3786     0F92  1E8C               	btfss	12,5	;volatile
  3787     0F93  2F95               	goto	u2111
  3788     0F94  2F96               	goto	u2110
  3789     0F95                     u2111:
  3790     0F95  2F92               	goto	l254
  3791     0F96                     u2110:
  3792     0F96                     l2663:
  3793                           
  3794                           ;main.c: 383:     dec = RCREG;
  3795     0F96  081A               	movf	26,w	;volatile
  3796     0F97  00CF               	movwf	_dec
  3797     0F98                     l2665:
  3798                           
  3799                           ;main.c: 384:     PIR1bits.RCIF = 0;
  3800     0F98  128C               	bcf	12,5	;volatile
  3801     0F99                     l257:	
  3802                           ;main.c: 385:     while(!RCIF);
  3803                           
  3804     0F99  1E8C               	btfss	12,5	;volatile
  3805     0F9A  2F9C               	goto	u2121
  3806     0F9B  2F9D               	goto	u2120
  3807     0F9C                     u2121:
  3808     0F9C  2F99               	goto	l257
  3809     0F9D                     u2120:
  3810     0F9D                     l2667:
  3811                           
  3812                           ;main.c: 386:     uni = RCREG;
  3813     0F9D  081A               	movf	26,w	;volatile
  3814     0F9E  00CD               	movwf	_uni
  3815     0F9F                     l2669:
  3816                           
  3817                           ;main.c: 387:     PIR1bits.RCIF = 0;
  3818     0F9F  128C               	bcf	12,5	;volatile
  3819     0FA0                     l260:
  3820     0FA0  0008               	return
  3821     0FA1                     __end_of_lecturanum:
  3822                           
  3823                           	psect	text15
  3824     0444                     __ptext15:	
  3825 ;; *************** function _lecpos *****************
  3826 ;; Defined at:
  3827 ;;		line 359 in file "main.c"
  3828 ;; Parameters:    Size  Location     Type
  3829 ;;		None
  3830 ;; Auto vars:     Size  Location     Type
  3831 ;;  addr            2    3[BANK0 ] int 
  3832 ;; Return value:  Size  Location     Type
  3833 ;;                  1    wreg      void 
  3834 ;; Registers used:
  3835 ;;		wreg, status,2, status,0, pclath, cstack
  3836 ;; Tracked objects:
  3837 ;;		On entry : 0/0
  3838 ;;		On exit  : 0/0
  3839 ;;		Unchanged: 0/0
  3840 ;; Data sizes:     COMMON   BANK0   BANK1   BANK3   BANK2
  3841 ;;      Params:         0       0       0       0       0
  3842 ;;      Locals:         0       2       0       0       0
  3843 ;;      Temps:          0       2       0       0       0
  3844 ;;      Totals:         0       4       0       0       0
  3845 ;;Total ram usage:        4 bytes
  3846 ;; Hardware stack levels used: 1
  3847 ;; Hardware stack levels required when called: 3
  3848 ;; This function calls:
  3849 ;;		_read_EEPROM
  3850 ;; This function is called by:
  3851 ;;		_main
  3852 ;;		_adafruitrec
  3853 ;; This function uses a non-reentrant model
  3854 ;;
  3855                           
  3856     0444                     _lecpos:	
  3857                           ;psect for function _lecpos
  3858                           
  3859     0444                     l2633:	
  3860                           ;incstack = 0
  3861                           ; Regs used in _lecpos: [wreg+status,2+status,0+pclath+cstack]
  3862                           
  3863                           
  3864                           ;main.c: 360:     int addr;;main.c: 361:     if (pos == 1){
  3865     0444  0370               	decf	_pos,w
  3866     0445  0471               	iorwf	_pos+1,w
  3867     0446  1D03               	btfss	3,2
  3868     0447  2C49               	goto	u2061
  3869     0448  2C4A               	goto	u2060
  3870     0449                     u2061:
  3871     0449  2C4F               	goto	l2637
  3872     044A                     u2060:
  3873     044A                     l2635:
  3874                           
  3875                           ;main.c: 362:         addr = 0;}
  3876     044A  1283               	bcf	3,5	;RP0=0, select bank0
  3877     044B  1303               	bcf	3,6	;RP1=0, select bank0
  3878     044C  01A3               	clrf	lecpos@addr
  3879     044D  01A4               	clrf	lecpos@addr+1
  3880     044E  2C79               	goto	l2649
  3881     044F                     l2637:
  3882     044F  3002               	movlw	2
  3883     0450  0670               	xorwf	_pos,w
  3884     0451  0471               	iorwf	_pos+1,w
  3885     0452  1D03               	btfss	3,2
  3886     0453  2C55               	goto	u2071
  3887     0454  2C56               	goto	u2070
  3888     0455                     u2071:
  3889     0455  2C5D               	goto	l2641
  3890     0456                     u2070:
  3891     0456                     l2639:
  3892                           
  3893                           ;main.c: 364:         addr = 4;}
  3894     0456  3004               	movlw	4
  3895     0457  1283               	bcf	3,5	;RP0=0, select bank0
  3896     0458  1303               	bcf	3,6	;RP1=0, select bank0
  3897     0459  00A3               	movwf	lecpos@addr
  3898     045A  3000               	movlw	0
  3899     045B  00A4               	movwf	lecpos@addr+1
  3900     045C  2C79               	goto	l2649
  3901     045D                     l2641:
  3902     045D  3003               	movlw	3
  3903     045E  0670               	xorwf	_pos,w
  3904     045F  0471               	iorwf	_pos+1,w
  3905     0460  1D03               	btfss	3,2
  3906     0461  2C63               	goto	u2081
  3907     0462  2C64               	goto	u2080
  3908     0463                     u2081:
  3909     0463  2C6B               	goto	l2645
  3910     0464                     u2080:
  3911     0464                     l2643:
  3912                           
  3913                           ;main.c: 366:         addr = 8;}
  3914     0464  3008               	movlw	8
  3915     0465  1283               	bcf	3,5	;RP0=0, select bank0
  3916     0466  1303               	bcf	3,6	;RP1=0, select bank0
  3917     0467  00A3               	movwf	lecpos@addr
  3918     0468  3000               	movlw	0
  3919     0469  00A4               	movwf	lecpos@addr+1
  3920     046A  2C79               	goto	l2649
  3921     046B                     l2645:
  3922     046B  3004               	movlw	4
  3923     046C  0670               	xorwf	_pos,w
  3924     046D  0471               	iorwf	_pos+1,w
  3925     046E  1D03               	btfss	3,2
  3926     046F  2C71               	goto	u2091
  3927     0470  2C72               	goto	u2090
  3928     0471                     u2091:
  3929     0471  2C79               	goto	l244
  3930     0472                     u2090:
  3931     0472                     l2647:
  3932                           
  3933                           ;main.c: 368:         addr = 12;}
  3934     0472  300C               	movlw	12
  3935     0473  1283               	bcf	3,5	;RP0=0, select bank0
  3936     0474  1303               	bcf	3,6	;RP1=0, select bank0
  3937     0475  00A3               	movwf	lecpos@addr
  3938     0476  3000               	movlw	0
  3939     0477  00A4               	movwf	lecpos@addr+1
  3940     0478  2C79               	goto	l2649
  3941     0479                     l244:
  3942     0479                     l2649:
  3943                           
  3944                           ;main.c: 369:     v1PWM = read_EEPROM(addr);
  3945     0479  1283               	bcf	3,5	;RP0=0, select bank0
  3946     047A  1303               	bcf	3,6	;RP1=0, select bank0
  3947     047B  0823               	movf	lecpos@addr,w
  3948     047C  120A  158A  27A1  120A  118A  	fcall	_read_EEPROM
  3949     0481  1283               	bcf	3,5	;RP0=0, select bank0
  3950     0482  1303               	bcf	3,6	;RP1=0, select bank0
  3951     0483  00A1               	movwf	??_lecpos
  3952     0484  01A2               	clrf	??_lecpos+1
  3953     0485  0821               	movf	??_lecpos,w
  3954     0486  00CB               	movwf	_v1PWM
  3955     0487  0822               	movf	??_lecpos+1,w
  3956     0488  00CC               	movwf	_v1PWM+1
  3957     0489                     l2651:
  3958                           
  3959                           ;main.c: 370:     v2PWM = read_EEPROM((addr+1));
  3960     0489  0823               	movf	lecpos@addr,w
  3961     048A  3E01               	addlw	1
  3962     048B  120A  158A  27A1  120A  118A  	fcall	_read_EEPROM
  3963     0490  1283               	bcf	3,5	;RP0=0, select bank0
  3964     0491  1303               	bcf	3,6	;RP1=0, select bank0
  3965     0492  00A1               	movwf	??_lecpos
  3966     0493  01A2               	clrf	??_lecpos+1
  3967     0494  0821               	movf	??_lecpos,w
  3968     0495  00C9               	movwf	_v2PWM
  3969     0496  0822               	movf	??_lecpos+1,w
  3970     0497  00CA               	movwf	_v2PWM+1
  3971     0498                     l2653:
  3972                           
  3973                           ;main.c: 371:     HIGHpulse0 = read_EEPROM((addr+2));
  3974     0498  0823               	movf	lecpos@addr,w
  3975     0499  3E02               	addlw	2
  3976     049A  120A  158A  27A1  120A  118A  	fcall	_read_EEPROM
  3977     049F  1283               	bcf	3,5	;RP0=0, select bank0
  3978     04A0  1303               	bcf	3,6	;RP1=0, select bank0
  3979     04A1  00A1               	movwf	??_lecpos
  3980     04A2  01A2               	clrf	??_lecpos+1
  3981     04A3  0821               	movf	??_lecpos,w
  3982     04A4  00F4               	movwf	_HIGHpulse0
  3983     04A5  0822               	movf	??_lecpos+1,w
  3984     04A6  00F5               	movwf	_HIGHpulse0+1
  3985     04A7                     l2655:
  3986                           
  3987                           ;main.c: 372:     HIGHpulse1 = read_EEPROM((addr+3));
  3988     04A7  0823               	movf	lecpos@addr,w
  3989     04A8  3E03               	addlw	3
  3990     04A9  120A  158A  27A1  120A  118A  	fcall	_read_EEPROM
  3991     04AE  1283               	bcf	3,5	;RP0=0, select bank0
  3992     04AF  1303               	bcf	3,6	;RP1=0, select bank0
  3993     04B0  00A1               	movwf	??_lecpos
  3994     04B1  01A2               	clrf	??_lecpos+1
  3995     04B2  0821               	movf	??_lecpos,w
  3996     04B3  00C3               	movwf	_HIGHpulse1
  3997     04B4  0822               	movf	??_lecpos+1,w
  3998     04B5  00C4               	movwf	_HIGHpulse1+1
  3999     04B6                     l248:
  4000     04B6  0008               	return
  4001     04B7                     __end_of_lecpos:
  4002                           
  4003                           	psect	text16
  4004     0FA1                     __ptext16:	
  4005 ;; *************** function _read_EEPROM *****************
  4006 ;; Defined at:
  4007 ;;		line 25 in file "ReadWrite.c"
  4008 ;; Parameters:    Size  Location     Type
  4009 ;;  address         1    wreg     unsigned char 
  4010 ;; Auto vars:     Size  Location     Type
  4011 ;;  address         1    0[BANK0 ] unsigned char 
  4012 ;; Return value:  Size  Location     Type
  4013 ;;                  1    wreg      unsigned char 
  4014 ;; Registers used:
  4015 ;;		wreg
  4016 ;; Tracked objects:
  4017 ;;		On entry : 0/0
  4018 ;;		On exit  : 0/0
  4019 ;;		Unchanged: 0/0
  4020 ;; Data sizes:     COMMON   BANK0   BANK1   BANK3   BANK2
  4021 ;;      Params:         0       0       0       0       0
  4022 ;;      Locals:         0       1       0       0       0
  4023 ;;      Temps:          0       0       0       0       0
  4024 ;;      Totals:         0       1       0       0       0
  4025 ;;Total ram usage:        1 bytes
  4026 ;; Hardware stack levels used: 1
  4027 ;; Hardware stack levels required when called: 2
  4028 ;; This function calls:
  4029 ;;		Nothing
  4030 ;; This function is called by:
  4031 ;;		_lecpos
  4032 ;; This function uses a non-reentrant model
  4033 ;;
  4034                           
  4035     0FA1                     _read_EEPROM:	
  4036                           ;psect for function _read_EEPROM
  4037                           
  4038                           
  4039                           ;incstack = 0
  4040                           ; Regs used in _read_EEPROM: [wreg]
  4041                           ;read_EEPROM@address stored from wreg
  4042     0FA1  1283               	bcf	3,5	;RP0=0, select bank0
  4043     0FA2  1303               	bcf	3,6	;RP1=0, select bank0
  4044     0FA3  00A0               	movwf	read_EEPROM@address
  4045     0FA4                     l2471:
  4046     0FA4                     l396:	
  4047                           ;ReadWrite.c: 26:     while(WR || RD);
  4048                           
  4049     0FA4  1683               	bsf	3,5	;RP0=1, select bank3
  4050     0FA5  1703               	bsf	3,6	;RP1=1, select bank3
  4051     0FA6  188C               	btfsc	12,1	;volsfr
  4052     0FA7  2FA9               	goto	u1861
  4053     0FA8  2FAA               	goto	u1860
  4054     0FA9                     u1861:
  4055     0FA9  2FA4               	goto	l396
  4056     0FAA                     u1860:
  4057     0FAA                     l2473:
  4058     0FAA  180C               	btfsc	12,0	;volsfr
  4059     0FAB  2FAD               	goto	u1871
  4060     0FAC  2FAE               	goto	u1870
  4061     0FAD                     u1871:
  4062     0FAD  2FA4               	goto	l396
  4063     0FAE                     u1870:
  4064     0FAE                     l2475:
  4065                           
  4066                           ;ReadWrite.c: 27:     EEADR = address;
  4067     0FAE  1283               	bcf	3,5	;RP0=0, select bank0
  4068     0FAF  1303               	bcf	3,6	;RP1=0, select bank0
  4069     0FB0  0820               	movf	read_EEPROM@address,w
  4070     0FB1  1283               	bcf	3,5	;RP0=0, select bank2
  4071     0FB2  1703               	bsf	3,6	;RP1=1, select bank2
  4072     0FB3  008D               	movwf	13	;volatile
  4073     0FB4                     l2477:
  4074                           
  4075                           ;ReadWrite.c: 28:     EECON1bits.EEPGD = 0;
  4076     0FB4  1683               	bsf	3,5	;RP0=1, select bank3
  4077     0FB5  1703               	bsf	3,6	;RP1=1, select bank3
  4078     0FB6  138C               	bcf	12,7	;volsfr
  4079     0FB7                     l2479:
  4080                           
  4081                           ;ReadWrite.c: 29:     EECON1bits.RD = 1;
  4082     0FB7  140C               	bsf	12,0	;volsfr
  4083                           
  4084                           ;ReadWrite.c: 30:     return EEDAT;
  4085     0FB8  1283               	bcf	3,5	;RP0=0, select bank2
  4086     0FB9  1703               	bsf	3,6	;RP1=1, select bank2
  4087     0FBA  080C               	movf	12,w	;volatile
  4088     0FBB                     l399:
  4089     0FBB  0008               	return
  4090     0FBC                     __end_of_read_EEPROM:
  4091                           
  4092                           	psect	text17
  4093     0659                     __ptext17:	
  4094 ;; *************** function _convint *****************
  4095 ;; Defined at:
  4096 ;;		line 45 in file "OpNum.c"
  4097 ;; Parameters:    Size  Location     Type
  4098 ;;  centenas        1    wreg     unsigned char 
  4099 ;;  decenas         1    6[BANK0 ] unsigned char 
  4100 ;;  unidades        1    7[BANK0 ] unsigned char 
  4101 ;; Auto vars:     Size  Location     Type
  4102 ;;  centenas        1   12[BANK0 ] unsigned char 
  4103 ;;  c               2   17[BANK0 ] int 
  4104 ;;  d               2   15[BANK0 ] int 
  4105 ;;  u               2   13[BANK0 ] int 
  4106 ;; Return value:  Size  Location     Type
  4107 ;;                  2    6[BANK0 ] int 
  4108 ;; Registers used:
  4109 ;;		wreg, status,2, status,0, pclath, cstack
  4110 ;; Tracked objects:
  4111 ;;		On entry : 0/0
  4112 ;;		On exit  : 0/0
  4113 ;;		Unchanged: 0/0
  4114 ;; Data sizes:     COMMON   BANK0   BANK1   BANK3   BANK2
  4115 ;;      Params:         0       2       0       0       0
  4116 ;;      Locals:         0       7       0       0       0
  4117 ;;      Temps:          0       4       0       0       0
  4118 ;;      Totals:         0      13       0       0       0
  4119 ;;Total ram usage:       13 bytes
  4120 ;; Hardware stack levels used: 1
  4121 ;; Hardware stack levels required when called: 3
  4122 ;; This function calls:
  4123 ;;		___wmul
  4124 ;;		_chartoint
  4125 ;; This function is called by:
  4126 ;;		_adafruitrec
  4127 ;; This function uses a non-reentrant model
  4128 ;;
  4129                           
  4130     0659                     _convint:	
  4131                           ;psect for function _convint
  4132                           
  4133                           
  4134                           ;incstack = 0
  4135                           ; Regs used in _convint: [wreg+status,2+status,0+pclath+cstack]
  4136                           ;convint@centenas stored from wreg
  4137     0659  1283               	bcf	3,5	;RP0=0, select bank0
  4138     065A  1303               	bcf	3,6	;RP1=0, select bank0
  4139     065B  00AC               	movwf	convint@centenas
  4140     065C                     l2671:
  4141                           
  4142                           ;OpNum.c: 46:     int u;;OpNum.c: 47:     int d;;OpNum.c: 48:     int c;;OpNum.c: 49:   
      +                            u = chartoint(unidades);
  4143     065C  0827               	movf	convint@unidades,w
  4144     065D  120A  118A  24B7  120A  118A  	fcall	_chartoint
  4145     0662  1283               	bcf	3,5	;RP0=0, select bank0
  4146     0663  1303               	bcf	3,6	;RP1=0, select bank0
  4147     0664  0821               	movf	?_chartoint+1,w
  4148     0665  00AE               	movwf	convint@u+1
  4149     0666  0820               	movf	?_chartoint,w
  4150     0667  00AD               	movwf	convint@u
  4151                           
  4152                           ;OpNum.c: 50:     d = chartoint(decenas);
  4153     0668  0826               	movf	convint@decenas,w
  4154     0669  120A  118A  24B7  120A  118A  	fcall	_chartoint
  4155     066E  1283               	bcf	3,5	;RP0=0, select bank0
  4156     066F  1303               	bcf	3,6	;RP1=0, select bank0
  4157     0670  0821               	movf	?_chartoint+1,w
  4158     0671  00B0               	movwf	convint@d+1
  4159     0672  0820               	movf	?_chartoint,w
  4160     0673  00AF               	movwf	convint@d
  4161                           
  4162                           ;OpNum.c: 51:     c = chartoint(centenas);
  4163     0674  082C               	movf	convint@centenas,w
  4164     0675  120A  118A  24B7  120A  118A  	fcall	_chartoint
  4165     067A  1283               	bcf	3,5	;RP0=0, select bank0
  4166     067B  1303               	bcf	3,6	;RP1=0, select bank0
  4167     067C  0821               	movf	?_chartoint+1,w
  4168     067D  00B2               	movwf	convint@c+1
  4169     067E  0820               	movf	?_chartoint,w
  4170     067F  00B1               	movwf	convint@c
  4171                           
  4172                           ;OpNum.c: 52:     return ((c*100)+(d*10)+u);
  4173     0680  0832               	movf	convint@c+1,w
  4174     0681  00A1               	movwf	___wmul@multiplier+1
  4175     0682  0831               	movf	convint@c,w
  4176     0683  00A0               	movwf	___wmul@multiplier
  4177     0684  3064               	movlw	100
  4178     0685  00A2               	movwf	___wmul@multiplicand
  4179     0686  3000               	movlw	0
  4180     0687  00A3               	movwf	___wmul@multiplicand+1
  4181     0688  120A  118A  2782  120A  118A  	fcall	___wmul
  4182     068D  1283               	bcf	3,5	;RP0=0, select bank0
  4183     068E  1303               	bcf	3,6	;RP1=0, select bank0
  4184     068F  0820               	movf	?___wmul,w
  4185     0690  00A8               	movwf	??_convint
  4186     0691  0821               	movf	?___wmul+1,w
  4187     0692  00A9               	movwf	??_convint+1
  4188     0693  0830               	movf	convint@d+1,w
  4189     0694  00A1               	movwf	___wmul@multiplier+1
  4190     0695  082F               	movf	convint@d,w
  4191     0696  00A0               	movwf	___wmul@multiplier
  4192     0697  300A               	movlw	10
  4193     0698  00A2               	movwf	___wmul@multiplicand
  4194     0699  3000               	movlw	0
  4195     069A  00A3               	movwf	___wmul@multiplicand+1
  4196     069B  120A  118A  2782  120A  118A  	fcall	___wmul
  4197     06A0  1283               	bcf	3,5	;RP0=0, select bank0
  4198     06A1  1303               	bcf	3,6	;RP1=0, select bank0
  4199     06A2  0820               	movf	?___wmul,w
  4200     06A3  0728               	addwf	??_convint,w
  4201     06A4  00AA               	movwf	??_convint+2
  4202     06A5  0821               	movf	?___wmul+1,w
  4203     06A6  1803               	skipnc
  4204     06A7  0A21               	incf	?___wmul+1,w
  4205     06A8  0729               	addwf	??_convint+1,w
  4206     06A9  00AB               	movwf	??_convint+3
  4207     06AA  082D               	movf	convint@u,w
  4208     06AB  072A               	addwf	??_convint+2,w
  4209     06AC  00A6               	movwf	?_convint
  4210     06AD  082E               	movf	convint@u+1,w
  4211     06AE  1803               	skipnc
  4212     06AF  0A2E               	incf	convint@u+1,w
  4213     06B0  072B               	addwf	??_convint+3,w
  4214     06B1  00A7               	movwf	?_convint+1
  4215     06B2                     l370:
  4216     06B2  0008               	return
  4217     06B3                     __end_of_convint:
  4218                           
  4219                           	psect	text18
  4220     04B7                     __ptext18:	
  4221 ;; *************** function _chartoint *****************
  4222 ;; Defined at:
  4223 ;;		line 11 in file "OpNum.c"
  4224 ;; Parameters:    Size  Location     Type
  4225 ;;  num             1    wreg     unsigned char 
  4226 ;; Auto vars:     Size  Location     Type
  4227 ;;  num             1    2[BANK0 ] unsigned char 
  4228 ;; Return value:  Size  Location     Type
  4229 ;;                  2    0[BANK0 ] int 
  4230 ;; Registers used:
  4231 ;;		wreg, status,2, status,0
  4232 ;; Tracked objects:
  4233 ;;		On entry : 0/0
  4234 ;;		On exit  : 0/0
  4235 ;;		Unchanged: 0/0
  4236 ;; Data sizes:     COMMON   BANK0   BANK1   BANK3   BANK2
  4237 ;;      Params:         0       2       0       0       0
  4238 ;;      Locals:         0       1       0       0       0
  4239 ;;      Temps:          0       0       0       0       0
  4240 ;;      Totals:         0       3       0       0       0
  4241 ;;Total ram usage:        3 bytes
  4242 ;; Hardware stack levels used: 1
  4243 ;; Hardware stack levels required when called: 2
  4244 ;; This function calls:
  4245 ;;		Nothing
  4246 ;; This function is called by:
  4247 ;;		_convint
  4248 ;; This function uses a non-reentrant model
  4249 ;;
  4250                           
  4251     04B7                     _chartoint:	
  4252                           ;psect for function _chartoint
  4253                           
  4254                           
  4255                           ;incstack = 0
  4256                           ; Regs used in _chartoint: [wreg+status,2+status,0]
  4257                           ;chartoint@num stored from wreg
  4258     04B7  1283               	bcf	3,5	;RP0=0, select bank0
  4259     04B8  1303               	bcf	3,6	;RP1=0, select bank0
  4260     04B9  00A2               	movwf	chartoint@num
  4261     04BA                     l2483:
  4262                           
  4263                           ;OpNum.c: 12:     if (num == '0'){
  4264     04BA  3030               	movlw	48
  4265     04BB  0622               	xorwf	chartoint@num,w
  4266     04BC  1D03               	btfss	3,2
  4267     04BD  2CBF               	goto	u1881
  4268     04BE  2CC0               	goto	u1880
  4269     04BF                     u1881:
  4270     04BF  2CC3               	goto	l2491
  4271     04C0                     u1880:
  4272     04C0                     l2485:
  4273                           
  4274                           ;OpNum.c: 13:         return 0;
  4275     04C0  01A0               	clrf	?_chartoint
  4276     04C1  01A1               	clrf	?_chartoint+1
  4277     04C2  2D26               	goto	l349
  4278     04C3                     l2491:
  4279     04C3  3031               	movlw	49
  4280     04C4  0622               	xorwf	chartoint@num,w
  4281     04C5  1D03               	btfss	3,2
  4282     04C6  2CC8               	goto	u1891
  4283     04C7  2CC9               	goto	u1890
  4284     04C8                     u1891:
  4285     04C8  2CCE               	goto	l2499
  4286     04C9                     u1890:
  4287     04C9                     l2493:
  4288                           
  4289                           ;OpNum.c: 16:         return 1;
  4290     04C9  3001               	movlw	1
  4291     04CA  00A0               	movwf	?_chartoint
  4292     04CB  3000               	movlw	0
  4293     04CC  00A1               	movwf	?_chartoint+1
  4294     04CD  2D26               	goto	l349
  4295     04CE                     l2499:
  4296     04CE  3032               	movlw	50
  4297     04CF  0622               	xorwf	chartoint@num,w
  4298     04D0  1D03               	btfss	3,2
  4299     04D1  2CD3               	goto	u1901
  4300     04D2  2CD4               	goto	u1900
  4301     04D3                     u1901:
  4302     04D3  2CD9               	goto	l2507
  4303     04D4                     u1900:
  4304     04D4                     l2501:
  4305                           
  4306                           ;OpNum.c: 19:         return 2;
  4307     04D4  3002               	movlw	2
  4308     04D5  00A0               	movwf	?_chartoint
  4309     04D6  3000               	movlw	0
  4310     04D7  00A1               	movwf	?_chartoint+1
  4311     04D8  2D26               	goto	l349
  4312     04D9                     l2507:
  4313     04D9  3033               	movlw	51
  4314     04DA  0622               	xorwf	chartoint@num,w
  4315     04DB  1D03               	btfss	3,2
  4316     04DC  2CDE               	goto	u1911
  4317     04DD  2CDF               	goto	u1910
  4318     04DE                     u1911:
  4319     04DE  2CE4               	goto	l2515
  4320     04DF                     u1910:
  4321     04DF                     l2509:
  4322                           
  4323                           ;OpNum.c: 22:         return 3;
  4324     04DF  3003               	movlw	3
  4325     04E0  00A0               	movwf	?_chartoint
  4326     04E1  3000               	movlw	0
  4327     04E2  00A1               	movwf	?_chartoint+1
  4328     04E3  2D26               	goto	l349
  4329     04E4                     l2515:
  4330     04E4  3034               	movlw	52
  4331     04E5  0622               	xorwf	chartoint@num,w
  4332     04E6  1D03               	btfss	3,2
  4333     04E7  2CE9               	goto	u1921
  4334     04E8  2CEA               	goto	u1920
  4335     04E9                     u1921:
  4336     04E9  2CEF               	goto	l2523
  4337     04EA                     u1920:
  4338     04EA                     l2517:
  4339                           
  4340                           ;OpNum.c: 25:         return 4;
  4341     04EA  3004               	movlw	4
  4342     04EB  00A0               	movwf	?_chartoint
  4343     04EC  3000               	movlw	0
  4344     04ED  00A1               	movwf	?_chartoint+1
  4345     04EE  2D26               	goto	l349
  4346     04EF                     l2523:
  4347     04EF  3035               	movlw	53
  4348     04F0  0622               	xorwf	chartoint@num,w
  4349     04F1  1D03               	btfss	3,2
  4350     04F2  2CF4               	goto	u1931
  4351     04F3  2CF5               	goto	u1930
  4352     04F4                     u1931:
  4353     04F4  2CFA               	goto	l2531
  4354     04F5                     u1930:
  4355     04F5                     l2525:
  4356                           
  4357                           ;OpNum.c: 28:         return 5;
  4358     04F5  3005               	movlw	5
  4359     04F6  00A0               	movwf	?_chartoint
  4360     04F7  3000               	movlw	0
  4361     04F8  00A1               	movwf	?_chartoint+1
  4362     04F9  2D26               	goto	l349
  4363     04FA                     l2531:
  4364     04FA  3036               	movlw	54
  4365     04FB  0622               	xorwf	chartoint@num,w
  4366     04FC  1D03               	btfss	3,2
  4367     04FD  2CFF               	goto	u1941
  4368     04FE  2D00               	goto	u1940
  4369     04FF                     u1941:
  4370     04FF  2D05               	goto	l2539
  4371     0500                     u1940:
  4372     0500                     l2533:
  4373                           
  4374                           ;OpNum.c: 31:         return 6;
  4375     0500  3006               	movlw	6
  4376     0501  00A0               	movwf	?_chartoint
  4377     0502  3000               	movlw	0
  4378     0503  00A1               	movwf	?_chartoint+1
  4379     0504  2D26               	goto	l349
  4380     0505                     l2539:
  4381     0505  3037               	movlw	55
  4382     0506  0622               	xorwf	chartoint@num,w
  4383     0507  1D03               	btfss	3,2
  4384     0508  2D0A               	goto	u1951
  4385     0509  2D0B               	goto	u1950
  4386     050A                     u1951:
  4387     050A  2D10               	goto	l2547
  4388     050B                     u1950:
  4389     050B                     l2541:
  4390                           
  4391                           ;OpNum.c: 34:         return 7;
  4392     050B  3007               	movlw	7
  4393     050C  00A0               	movwf	?_chartoint
  4394     050D  3000               	movlw	0
  4395     050E  00A1               	movwf	?_chartoint+1
  4396     050F  2D26               	goto	l349
  4397     0510                     l2547:
  4398     0510  3038               	movlw	56
  4399     0511  0622               	xorwf	chartoint@num,w
  4400     0512  1D03               	btfss	3,2
  4401     0513  2D15               	goto	u1961
  4402     0514  2D16               	goto	u1960
  4403     0515                     u1961:
  4404     0515  2D1B               	goto	l2555
  4405     0516                     u1960:
  4406     0516                     l2549:
  4407                           
  4408                           ;OpNum.c: 37:         return 8;
  4409     0516  3008               	movlw	8
  4410     0517  00A0               	movwf	?_chartoint
  4411     0518  3000               	movlw	0
  4412     0519  00A1               	movwf	?_chartoint+1
  4413     051A  2D26               	goto	l349
  4414     051B                     l2555:
  4415     051B  3039               	movlw	57
  4416     051C  0622               	xorwf	chartoint@num,w
  4417     051D  1D03               	btfss	3,2
  4418     051E  2D20               	goto	u1971
  4419     051F  2D21               	goto	u1970
  4420     0520                     u1971:
  4421     0520  2D26               	goto	l362
  4422     0521                     u1970:
  4423     0521                     l2557:
  4424                           
  4425                           ;OpNum.c: 40:         return 9;
  4426     0521  3009               	movlw	9
  4427     0522  00A0               	movwf	?_chartoint
  4428     0523  3000               	movlw	0
  4429     0524  00A1               	movwf	?_chartoint+1
  4430     0525  2D26               	goto	l349
  4431     0526                     l362:
  4432     0526                     l349:
  4433     0526  0008               	return
  4434     0527                     __end_of_chartoint:
  4435                           
  4436                           	psect	text19
  4437     0782                     __ptext19:	
  4438 ;; *************** function ___wmul *****************
  4439 ;; Defined at:
  4440 ;;		line 15 in file "C:\Program Files\Microchip\xc8\v2.40\pic\sources\c90\common\Umul16.c"
  4441 ;; Parameters:    Size  Location     Type
  4442 ;;  multiplier      2    0[BANK0 ] unsigned int 
  4443 ;;  multiplicand    2    2[BANK0 ] unsigned int 
  4444 ;; Auto vars:     Size  Location     Type
  4445 ;;  product         2    4[BANK0 ] unsigned int 
  4446 ;; Return value:  Size  Location     Type
  4447 ;;                  2    0[BANK0 ] unsigned int 
  4448 ;; Registers used:
  4449 ;;		wreg, status,2, status,0
  4450 ;; Tracked objects:
  4451 ;;		On entry : 0/0
  4452 ;;		On exit  : 0/0
  4453 ;;		Unchanged: 0/0
  4454 ;; Data sizes:     COMMON   BANK0   BANK1   BANK3   BANK2
  4455 ;;      Params:         0       4       0       0       0
  4456 ;;      Locals:         0       2       0       0       0
  4457 ;;      Temps:          0       0       0       0       0
  4458 ;;      Totals:         0       6       0       0       0
  4459 ;;Total ram usage:        6 bytes
  4460 ;; Hardware stack levels used: 1
  4461 ;; Hardware stack levels required when called: 2
  4462 ;; This function calls:
  4463 ;;		Nothing
  4464 ;; This function is called by:
  4465 ;;		_convint
  4466 ;;		_mapeo
  4467 ;; This function uses a non-reentrant model
  4468 ;;
  4469                           
  4470     0782                     ___wmul:	
  4471                           ;psect for function ___wmul
  4472                           
  4473     0782                     l2561:	
  4474                           ;incstack = 0
  4475                           ; Regs used in ___wmul: [wreg+status,2+status,0]
  4476                           
  4477     0782  1283               	bcf	3,5	;RP0=0, select bank0
  4478     0783  1303               	bcf	3,6	;RP1=0, select bank0
  4479     0784  01A4               	clrf	___wmul@product
  4480     0785  01A5               	clrf	___wmul@product+1
  4481     0786                     l2563:
  4482     0786  1C20               	btfss	___wmul@multiplier,0
  4483     0787  2F89               	goto	u1981
  4484     0788  2F8A               	goto	u1980
  4485     0789                     u1981:
  4486     0789  2F90               	goto	l485
  4487     078A                     u1980:
  4488     078A                     l2565:
  4489     078A  0822               	movf	___wmul@multiplicand,w
  4490     078B  07A4               	addwf	___wmul@product,f
  4491     078C  1803               	skipnc
  4492     078D  0AA5               	incf	___wmul@product+1,f
  4493     078E  0823               	movf	___wmul@multiplicand+1,w
  4494     078F  07A5               	addwf	___wmul@product+1,f
  4495     0790                     l485:
  4496     0790  3001               	movlw	1
  4497     0791                     u1995:
  4498     0791  1003               	clrc
  4499     0792  0DA2               	rlf	___wmul@multiplicand,f
  4500     0793  0DA3               	rlf	___wmul@multiplicand+1,f
  4501     0794  3EFF               	addlw	-1
  4502     0795  1D03               	skipz
  4503     0796  2F91               	goto	u1995
  4504     0797                     l2567:
  4505     0797  3001               	movlw	1
  4506     0798                     u2005:
  4507     0798  1003               	clrc
  4508     0799  0CA1               	rrf	___wmul@multiplier+1,f
  4509     079A  0CA0               	rrf	___wmul@multiplier,f
  4510     079B  3EFF               	addlw	-1
  4511     079C  1D03               	skipz
  4512     079D  2F98               	goto	u2005
  4513     079E                     l2569:
  4514     079E  0820               	movf	___wmul@multiplier,w
  4515     079F  0421               	iorwf	___wmul@multiplier+1,w
  4516     07A0  1D03               	btfss	3,2
  4517     07A1  2FA3               	goto	u2011
  4518     07A2  2FA4               	goto	u2010
  4519     07A3                     u2011:
  4520     07A3  2F86               	goto	l2563
  4521     07A4                     u2010:
  4522     07A4                     l2571:
  4523     07A4  0825               	movf	___wmul@product+1,w
  4524     07A5  00A1               	movwf	?___wmul+1
  4525     07A6  0824               	movf	___wmul@product,w
  4526     07A7  00A0               	movwf	?___wmul
  4527     07A8                     l487:
  4528     07A8  0008               	return
  4529     07A9                     __end_of___wmul:
  4530                           
  4531                           	psect	text20
  4532     0720                     __ptext20:	
  4533 ;; *************** function _LEDpos *****************
  4534 ;; Defined at:
  4535 ;;		line 308 in file "main.c"
  4536 ;; Parameters:    Size  Location     Type
  4537 ;;		None
  4538 ;; Auto vars:     Size  Location     Type
  4539 ;;		None
  4540 ;; Return value:  Size  Location     Type
  4541 ;;                  1    wreg      void 
  4542 ;; Registers used:
  4543 ;;		wreg, fsr0l, fsr0h, status,2, status,0
  4544 ;; Tracked objects:
  4545 ;;		On entry : 0/0
  4546 ;;		On exit  : 0/0
  4547 ;;		Unchanged: 0/0
  4548 ;; Data sizes:     COMMON   BANK0   BANK1   BANK3   BANK2
  4549 ;;      Params:         0       0       0       0       0
  4550 ;;      Locals:         0       0       0       0       0
  4551 ;;      Temps:          0       0       0       0       0
  4552 ;;      Totals:         0       0       0       0       0
  4553 ;;Total ram usage:        0 bytes
  4554 ;; Hardware stack levels used: 1
  4555 ;; Hardware stack levels required when called: 2
  4556 ;; This function calls:
  4557 ;;		Nothing
  4558 ;; This function is called by:
  4559 ;;		_adafruitrec
  4560 ;; This function uses a non-reentrant model
  4561 ;;
  4562                           
  4563     0720                     _LEDpos:	
  4564                           ;psect for function _LEDpos
  4565                           
  4566     0720                     l2591:	
  4567                           ;incstack = 0
  4568                           ; Regs used in _LEDpos: [wreg-fsr0h+status,2+status,0]
  4569                           
  4570                           
  4571                           ;main.c: 309:     switch (pos){
  4572     0720  2F3D               	goto	l2603
  4573     0721                     l2593:
  4574                           
  4575                           ;main.c: 311:             PORTD = (PORTD & 0xF0) | 0x01;
  4576     0721  1283               	bcf	3,5	;RP0=0, select bank0
  4577     0722  1303               	bcf	3,6	;RP1=0, select bank0
  4578     0723  0808               	movf	8,w	;volatile
  4579     0724  39F0               	andlw	240
  4580     0725  3801               	iorlw	1
  4581     0726  0088               	movwf	8	;volatile
  4582                           
  4583                           ;main.c: 312:             break;
  4584     0727  2F50               	goto	l220
  4585     0728                     l2595:
  4586                           
  4587                           ;main.c: 314:             PORTD = (PORTD & 0xF0) | 0x02;
  4588     0728  1283               	bcf	3,5	;RP0=0, select bank0
  4589     0729  1303               	bcf	3,6	;RP1=0, select bank0
  4590     072A  0808               	movf	8,w	;volatile
  4591     072B  39F0               	andlw	240
  4592     072C  3802               	iorlw	2
  4593     072D  0088               	movwf	8	;volatile
  4594                           
  4595                           ;main.c: 315:             break;
  4596     072E  2F50               	goto	l220
  4597     072F                     l2597:
  4598                           
  4599                           ;main.c: 317:             PORTD = (PORTD & 0xF0) | 0x04;
  4600     072F  1283               	bcf	3,5	;RP0=0, select bank0
  4601     0730  1303               	bcf	3,6	;RP1=0, select bank0
  4602     0731  0808               	movf	8,w	;volatile
  4603     0732  39F0               	andlw	240
  4604     0733  3804               	iorlw	4
  4605     0734  0088               	movwf	8	;volatile
  4606                           
  4607                           ;main.c: 318:             break;
  4608     0735  2F50               	goto	l220
  4609     0736                     l2599:
  4610                           
  4611                           ;main.c: 320:             PORTD = (PORTD & 0xF0) | 0x08;
  4612     0736  1283               	bcf	3,5	;RP0=0, select bank0
  4613     0737  1303               	bcf	3,6	;RP1=0, select bank0
  4614     0738  0808               	movf	8,w	;volatile
  4615     0739  39F0               	andlw	240
  4616     073A  3808               	iorlw	8
  4617     073B  0088               	movwf	8	;volatile
  4618                           
  4619                           ;main.c: 321:             break;
  4620     073C  2F50               	goto	l220
  4621     073D                     l2603:
  4622                           
  4623                           ; Switch on 2 bytes has been partitioned into a top level switch of size 1, and 1 sub-sw
      +                          itches
  4624                           ; Switch size 1, requested type "simple"
  4625                           ; Number of cases is 1, Range of values is 0 to 0
  4626                           ; switch strategies available:
  4627                           ; Name         Instructions Cycles
  4628                           ; simple_byte            4     3 (average)
  4629                           ; direct_byte           11     8 (fixed)
  4630                           ; jumptable            260     6 (fixed)
  4631                           ;	Chosen strategy is simple_byte
  4632     073D  0871               	movf	_pos+1,w
  4633     073E  3A00               	xorlw	0	; case 0
  4634     073F  1903               	skipnz
  4635     0740  2F42               	goto	l3041
  4636     0741  2F50               	goto	l220
  4637     0742                     l3041:
  4638                           
  4639                           ; Switch size 1, requested type "simple"
  4640                           ; Number of cases is 4, Range of values is 1 to 4
  4641                           ; switch strategies available:
  4642                           ; Name         Instructions Cycles
  4643                           ; simple_byte           13     7 (average)
  4644                           ; direct_byte           23    11 (fixed)
  4645                           ; jumptable            263     9 (fixed)
  4646                           ;	Chosen strategy is simple_byte
  4647     0742  0870               	movf	_pos,w
  4648     0743  3A01               	xorlw	1	; case 1
  4649     0744  1903               	skipnz
  4650     0745  2F21               	goto	l2593
  4651     0746  3A03               	xorlw	3	; case 2
  4652     0747  1903               	skipnz
  4653     0748  2F28               	goto	l2595
  4654     0749  3A01               	xorlw	1	; case 3
  4655     074A  1903               	skipnz
  4656     074B  2F2F               	goto	l2597
  4657     074C  3A07               	xorlw	7	; case 4
  4658     074D  1903               	skipnz
  4659     074E  2F36               	goto	l2599
  4660     074F  2F50               	goto	l220
  4661     0750                     l220:
  4662     0750  0008               	return
  4663     0751                     __end_of_LEDpos:
  4664                           
  4665                           	psect	text21
  4666     07A9                     __ptext21:	
  4667 ;; *************** function _LEDmod *****************
  4668 ;; Defined at:
  4669 ;;		line 325 in file "main.c"
  4670 ;; Parameters:    Size  Location     Type
  4671 ;;		None
  4672 ;; Auto vars:     Size  Location     Type
  4673 ;;		None
  4674 ;; Return value:  Size  Location     Type
  4675 ;;                  1    wreg      void 
  4676 ;; Registers used:
  4677 ;;		wreg, fsr0l, fsr0h, status,2, status,0
  4678 ;; Tracked objects:
  4679 ;;		On entry : 0/0
  4680 ;;		On exit  : 0/0
  4681 ;;		Unchanged: 0/0
  4682 ;; Data sizes:     COMMON   BANK0   BANK1   BANK3   BANK2
  4683 ;;      Params:         0       0       0       0       0
  4684 ;;      Locals:         0       0       0       0       0
  4685 ;;      Temps:          0       0       0       0       0
  4686 ;;      Totals:         0       0       0       0       0
  4687 ;;Total ram usage:        0 bytes
  4688 ;; Hardware stack levels used: 1
  4689 ;; Hardware stack levels required when called: 2
  4690 ;; This function calls:
  4691 ;;		Nothing
  4692 ;; This function is called by:
  4693 ;;		_adafruitrec
  4694 ;; This function uses a non-reentrant model
  4695 ;;
  4696                           
  4697     07A9                     _LEDmod:	
  4698                           ;psect for function _LEDmod
  4699                           
  4700     07A9                     l2575:	
  4701                           ;incstack = 0
  4702                           ; Regs used in _LEDmod: [wreg-fsr0h+status,2+status,0]
  4703                           
  4704                           
  4705                           ;main.c: 326:     switch (modo){
  4706     07A9  2FBF               	goto	l2585
  4707     07AA                     l2577:
  4708                           
  4709                           ;main.c: 328:             PORTD = (PORTD & 0x0F) | 0x10;
  4710     07AA  1283               	bcf	3,5	;RP0=0, select bank0
  4711     07AB  1303               	bcf	3,6	;RP1=0, select bank0
  4712     07AC  0808               	movf	8,w	;volatile
  4713     07AD  390F               	andlw	15
  4714     07AE  3810               	iorlw	16
  4715     07AF  0088               	movwf	8	;volatile
  4716                           
  4717                           ;main.c: 329:             break;
  4718     07B0  2FCF               	goto	l228
  4719     07B1                     l2579:
  4720                           
  4721                           ;main.c: 331:             PORTD = (PORTD & 0x0F) | 0x20;
  4722     07B1  1283               	bcf	3,5	;RP0=0, select bank0
  4723     07B2  1303               	bcf	3,6	;RP1=0, select bank0
  4724     07B3  0808               	movf	8,w	;volatile
  4725     07B4  390F               	andlw	15
  4726     07B5  3820               	iorlw	32
  4727     07B6  0088               	movwf	8	;volatile
  4728                           
  4729                           ;main.c: 332:             break;
  4730     07B7  2FCF               	goto	l228
  4731     07B8                     l2581:
  4732                           
  4733                           ;main.c: 334:             PORTD = (PORTD & 0x0F) | 0x40;
  4734     07B8  1283               	bcf	3,5	;RP0=0, select bank0
  4735     07B9  1303               	bcf	3,6	;RP1=0, select bank0
  4736     07BA  0808               	movf	8,w	;volatile
  4737     07BB  390F               	andlw	15
  4738     07BC  3840               	iorlw	64
  4739     07BD  0088               	movwf	8	;volatile
  4740                           
  4741                           ;main.c: 335:             break;
  4742     07BE  2FCF               	goto	l228
  4743     07BF                     l2585:
  4744                           
  4745                           ; Switch on 2 bytes has been partitioned into a top level switch of size 1, and 1 sub-sw
      +                          itches
  4746                           ; Switch size 1, requested type "simple"
  4747                           ; Number of cases is 1, Range of values is 0 to 0
  4748                           ; switch strategies available:
  4749                           ; Name         Instructions Cycles
  4750                           ; simple_byte            4     3 (average)
  4751                           ; direct_byte           11     8 (fixed)
  4752                           ; jumptable            260     6 (fixed)
  4753                           ;	Chosen strategy is simple_byte
  4754     07BF  0873               	movf	_modo+1,w
  4755     07C0  3A00               	xorlw	0	; case 0
  4756     07C1  1903               	skipnz
  4757     07C2  2FC4               	goto	l3043
  4758     07C3  2FCF               	goto	l228
  4759     07C4                     l3043:
  4760                           
  4761                           ; Switch size 1, requested type "simple"
  4762                           ; Number of cases is 3, Range of values is 0 to 2
  4763                           ; switch strategies available:
  4764                           ; Name         Instructions Cycles
  4765                           ; simple_byte           10     6 (average)
  4766                           ; direct_byte           17     8 (fixed)
  4767                           ; jumptable            260     6 (fixed)
  4768                           ;	Chosen strategy is simple_byte
  4769     07C4  0872               	movf	_modo,w
  4770     07C5  3A00               	xorlw	0	; case 0
  4771     07C6  1903               	skipnz
  4772     07C7  2FAA               	goto	l2577
  4773     07C8  3A01               	xorlw	1	; case 1
  4774     07C9  1903               	skipnz
  4775     07CA  2FB1               	goto	l2579
  4776     07CB  3A03               	xorlw	3	; case 2
  4777     07CC  1903               	skipnz
  4778     07CD  2FB8               	goto	l2581
  4779     07CE  2FCF               	goto	l228
  4780     07CF                     l228:
  4781     07CF  0008               	return
  4782     07D0                     __end_of_LEDmod:
  4783                           
  4784                           	psect	text22
  4785     0312                     __ptext22:	
  4786 ;; *************** function _isr *****************
  4787 ;; Defined at:
  4788 ;;		line 92 in file "main.c"
  4789 ;; Parameters:    Size  Location     Type
  4790 ;;		None
  4791 ;; Auto vars:     Size  Location     Type
  4792 ;;		None
  4793 ;; Return value:  Size  Location     Type
  4794 ;;                  1    wreg      void 
  4795 ;; Registers used:
  4796 ;;		wreg, fsr0l, fsr0h, status,2, status,0, btemp+1, pclath, cstack
  4797 ;; Tracked objects:
  4798 ;;		On entry : 0/0
  4799 ;;		On exit  : 0/0
  4800 ;;		Unchanged: 0/0
  4801 ;; Data sizes:     COMMON   BANK0   BANK1   BANK3   BANK2
  4802 ;;      Params:         0       0       0       0       0
  4803 ;;      Locals:         0       0       0       0       0
  4804 ;;      Temps:          4       0       0       0       0
  4805 ;;      Totals:         4       0       0       0       0
  4806 ;;Total ram usage:        4 bytes
  4807 ;; Hardware stack levels used: 1
  4808 ;; Hardware stack levels required when called: 1
  4809 ;; This function calls:
  4810 ;;		_hightime
  4811 ;;		i1_LEDmod
  4812 ;;		i1_LEDpos
  4813 ;; This function is called by:
  4814 ;;		Interrupt level 1
  4815 ;; This function uses a non-reentrant model
  4816 ;;
  4817                           
  4818     0312                     _isr:	
  4819                           ;psect for function _isr
  4820                           
  4821     0312                     i1l2245:
  4822                           
  4823                           ;main.c: 93:     if (INTCONbits.T0IF){
  4824     0312  1D0B               	btfss	11,2	;volatile
  4825     0313  2B15               	goto	u167_21
  4826     0314  2B16               	goto	u167_20
  4827     0315                     u167_21:
  4828     0315  2B35               	goto	i1l2263
  4829     0316                     u167_20:
  4830     0316                     i1l2247:
  4831                           
  4832                           ;main.c: 94:         INTCONbits.T0IF = 0;
  4833     0316  110B               	bcf	11,2	;volatile
  4834     0317                     i1l2249:
  4835                           
  4836                           ;main.c: 95:         TMR0 = 100;
  4837     0317  3064               	movlw	100
  4838     0318  1283               	bcf	3,5	;RP0=0, select bank0
  4839     0319  1303               	bcf	3,6	;RP1=0, select bank0
  4840     031A  0081               	movwf	1	;volatile
  4841     031B                     i1l2251:
  4842                           
  4843                           ;main.c: 96:         PORTCbits.RC0 = 1;
  4844     031B  1407               	bsf	7,0	;volatile
  4845     031C                     i1l2253:
  4846                           
  4847                           ;main.c: 97:         hightime(HIGHpulse0);
  4848     031C  0875               	movf	_HIGHpulse0+1,w
  4849     031D  00F7               	movwf	hightime@tdelay+1
  4850     031E  0874               	movf	_HIGHpulse0,w
  4851     031F  00F6               	movwf	hightime@tdelay
  4852     0320  120A  158A  275A  120A  118A  	fcall	_hightime
  4853     0325                     i1l2255:
  4854                           
  4855                           ;main.c: 98:         PORTCbits.RC0 = 0;
  4856     0325  1283               	bcf	3,5	;RP0=0, select bank0
  4857     0326  1303               	bcf	3,6	;RP1=0, select bank0
  4858     0327  1007               	bcf	7,0	;volatile
  4859     0328                     i1l2257:
  4860                           
  4861                           ;main.c: 99:         PORTCbits.RC3 = 1;
  4862     0328  1587               	bsf	7,3	;volatile
  4863     0329                     i1l2259:
  4864                           
  4865                           ;main.c: 100:         hightime(HIGHpulse1);
  4866     0329  0844               	movf	_HIGHpulse1+1,w
  4867     032A  00F7               	movwf	hightime@tdelay+1
  4868     032B  0843               	movf	_HIGHpulse1,w
  4869     032C  00F6               	movwf	hightime@tdelay
  4870     032D  120A  158A  275A  120A  118A  	fcall	_hightime
  4871     0332                     i1l2261:
  4872                           
  4873                           ;main.c: 101:         PORTCbits.RC3 = 0;
  4874     0332  1283               	bcf	3,5	;RP0=0, select bank0
  4875     0333  1303               	bcf	3,6	;RP1=0, select bank0
  4876     0334  1187               	bcf	7,3	;volatile
  4877     0335                     i1l2263:
  4878                           
  4879                           ;main.c: 104:     if (INTCONbits.RBIF){
  4880     0335  1C0B               	btfss	11,0	;volatile
  4881     0336  2B38               	goto	u168_21
  4882     0337  2B39               	goto	u168_20
  4883     0338                     u168_21:
  4884     0338  2BC1               	goto	i1l143
  4885     0339                     u168_20:
  4886     0339                     i1l2265:
  4887                           
  4888                           ;main.c: 105:         if (PORTBbits.RB7 == 0)
  4889     0339  1283               	bcf	3,5	;RP0=0, select bank0
  4890     033A  1303               	bcf	3,6	;RP1=0, select bank0
  4891     033B  1B86               	btfsc	6,7	;volatile
  4892     033C  2B3E               	goto	u169_21
  4893     033D  2B3F               	goto	u169_20
  4894     033E                     u169_21:
  4895     033E  2B60               	goto	i1l2277
  4896     033F                     u169_20:
  4897     033F                     i1l122:
  4898     033F  1F86               	btfss	6,7	;volatile
  4899     0340  2B42               	goto	u170_21
  4900     0341  2B43               	goto	u170_20
  4901     0342                     u170_21:
  4902     0342  2B3F               	goto	i1l122
  4903     0343                     u170_20:
  4904     0343                     i1l2269:
  4905                           
  4906                           ;main.c: 108:             if (modo < 2){
  4907     0343  0873               	movf	_modo+1,w
  4908     0344  3A80               	xorlw	128
  4909     0345  00FF               	movwf	btemp+1
  4910     0346  3080               	movlw	128
  4911     0347  027F               	subwf	btemp+1,w
  4912     0348  1D03               	skipz
  4913     0349  2B4C               	goto	u171_25
  4914     034A  3002               	movlw	2
  4915     034B  0272               	subwf	_modo,w
  4916     034C                     u171_25:
  4917     034C  1803               	skipnc
  4918     034D  2B4F               	goto	u171_21
  4919     034E  2B50               	goto	u171_20
  4920     034F                     u171_21:
  4921     034F  2B59               	goto	i1l2273
  4922     0350                     u171_20:
  4923     0350                     i1l2271:
  4924                           
  4925                           ;main.c: 109:                 modo = modo + 1;
  4926     0350  0872               	movf	_modo,w
  4927     0351  3E01               	addlw	1
  4928     0352  00F2               	movwf	_modo
  4929     0353  0873               	movf	_modo+1,w
  4930     0354  1803               	skipnc
  4931     0355  3E01               	addlw	1
  4932     0356  3E00               	addlw	0
  4933     0357  00F3               	movwf	_modo+1
  4934                           
  4935                           ;main.c: 110:             }
  4936     0358  2B5B               	goto	i1l2275
  4937     0359                     i1l2273:
  4938                           
  4939                           ;main.c: 112:                 modo = 0;
  4940     0359  01F2               	clrf	_modo
  4941     035A  01F3               	clrf	_modo+1
  4942     035B                     i1l2275:
  4943                           
  4944                           ;main.c: 114:             LEDmod();
  4945     035B  120A  118A  27D0  120A  118A  	fcall	i1_LEDmod
  4946     0360                     i1l2277:
  4947                           
  4948                           ;main.c: 116:         if(PORTBbits.RB6 == 0){
  4949     0360  1283               	bcf	3,5	;RP0=0, select bank0
  4950     0361  1303               	bcf	3,6	;RP1=0, select bank0
  4951     0362  1B06               	btfsc	6,6	;volatile
  4952     0363  2B65               	goto	u172_21
  4953     0364  2B66               	goto	u172_20
  4954     0365                     u172_21:
  4955     0365  2B89               	goto	i1l2289
  4956     0366                     u172_20:
  4957     0366                     i1l128:
  4958     0366  1F06               	btfss	6,6	;volatile
  4959     0367  2B69               	goto	u173_21
  4960     0368  2B6A               	goto	u173_20
  4961     0369                     u173_21:
  4962     0369  2B66               	goto	i1l128
  4963     036A                     u173_20:
  4964     036A                     i1l2281:
  4965                           
  4966                           ;main.c: 118:             if (pos < 4){
  4967     036A  0871               	movf	_pos+1,w
  4968     036B  3A80               	xorlw	128
  4969     036C  00FF               	movwf	btemp+1
  4970     036D  3080               	movlw	128
  4971     036E  027F               	subwf	btemp+1,w
  4972     036F  1D03               	skipz
  4973     0370  2B73               	goto	u174_25
  4974     0371  3004               	movlw	4
  4975     0372  0270               	subwf	_pos,w
  4976     0373                     u174_25:
  4977     0373  1803               	skipnc
  4978     0374  2B76               	goto	u174_21
  4979     0375  2B77               	goto	u174_20
  4980     0376                     u174_21:
  4981     0376  2B80               	goto	i1l2285
  4982     0377                     u174_20:
  4983     0377                     i1l2283:
  4984                           
  4985                           ;main.c: 119:                 pos = pos +1;
  4986     0377  0870               	movf	_pos,w
  4987     0378  3E01               	addlw	1
  4988     0379  00F0               	movwf	_pos
  4989     037A  0871               	movf	_pos+1,w
  4990     037B  1803               	skipnc
  4991     037C  3E01               	addlw	1
  4992     037D  3E00               	addlw	0
  4993     037E  00F1               	movwf	_pos+1
  4994                           
  4995                           ;main.c: 120:             }
  4996     037F  2B84               	goto	i1l2287
  4997     0380                     i1l2285:
  4998                           
  4999                           ;main.c: 122:                 pos = 1;
  5000     0380  3001               	movlw	1
  5001     0381  00F0               	movwf	_pos
  5002     0382  3000               	movlw	0
  5003     0383  00F1               	movwf	_pos+1
  5004     0384                     i1l2287:
  5005                           
  5006                           ;main.c: 124:             LEDpos();
  5007     0384  120A  118A  2751  120A  118A  	fcall	i1_LEDpos
  5008     0389                     i1l2289:
  5009                           
  5010                           ;main.c: 126:         if(PORTBbits.RB5 == 0){
  5011     0389  1283               	bcf	3,5	;RP0=0, select bank0
  5012     038A  1303               	bcf	3,6	;RP1=0, select bank0
  5013     038B  1A86               	btfsc	6,5	;volatile
  5014     038C  2B8E               	goto	u175_21
  5015     038D  2B8F               	goto	u175_20
  5016     038E                     u175_21:
  5017     038E  2BB2               	goto	i1l2301
  5018     038F                     u175_20:
  5019     038F                     i1l134:
  5020     038F  1E86               	btfss	6,5	;volatile
  5021     0390  2B92               	goto	u176_21
  5022     0391  2B93               	goto	u176_20
  5023     0392                     u176_21:
  5024     0392  2B8F               	goto	i1l134
  5025     0393                     u176_20:
  5026     0393                     i1l2293:
  5027                           
  5028                           ;main.c: 128:             if (pos > 1){
  5029     0393  0871               	movf	_pos+1,w
  5030     0394  3A80               	xorlw	128
  5031     0395  00FF               	movwf	btemp+1
  5032     0396  3080               	movlw	128
  5033     0397  027F               	subwf	btemp+1,w
  5034     0398  1D03               	skipz
  5035     0399  2B9C               	goto	u177_25
  5036     039A  3002               	movlw	2
  5037     039B  0270               	subwf	_pos,w
  5038     039C                     u177_25:
  5039     039C  1C03               	skipc
  5040     039D  2B9F               	goto	u177_21
  5041     039E  2BA0               	goto	u177_20
  5042     039F                     u177_21:
  5043     039F  2BA9               	goto	i1l2297
  5044     03A0                     u177_20:
  5045     03A0                     i1l2295:
  5046                           
  5047                           ;main.c: 129:                 pos = pos - 1;
  5048     03A0  0870               	movf	_pos,w
  5049     03A1  3EFF               	addlw	255
  5050     03A2  00F0               	movwf	_pos
  5051     03A3  0871               	movf	_pos+1,w
  5052     03A4  1803               	skipnc
  5053     03A5  3E01               	addlw	1
  5054     03A6  3EFF               	addlw	255
  5055     03A7  00F1               	movwf	_pos+1
  5056                           
  5057                           ;main.c: 130:             }
  5058     03A8  2BAD               	goto	i1l2299
  5059     03A9                     i1l2297:
  5060                           
  5061                           ;main.c: 132:                 pos = 4;
  5062     03A9  3004               	movlw	4
  5063     03AA  00F0               	movwf	_pos
  5064     03AB  3000               	movlw	0
  5065     03AC  00F1               	movwf	_pos+1
  5066     03AD                     i1l2299:
  5067                           
  5068                           ;main.c: 134:             LEDpos();
  5069     03AD  120A  118A  2751  120A  118A  	fcall	i1_LEDpos
  5070     03B2                     i1l2301:
  5071                           
  5072                           ;main.c: 136:         if(PORTBbits.RB4 == 0){
  5073     03B2  1283               	bcf	3,5	;RP0=0, select bank0
  5074     03B3  1303               	bcf	3,6	;RP1=0, select bank0
  5075     03B4  1A06               	btfsc	6,4	;volatile
  5076     03B5  2BB7               	goto	u178_21
  5077     03B6  2BB8               	goto	u178_20
  5078     03B7                     u178_21:
  5079     03B7  2BC0               	goto	i1l2307
  5080     03B8                     u178_20:
  5081     03B8                     i1l140:
  5082     03B8  1E06               	btfss	6,4	;volatile
  5083     03B9  2BBB               	goto	u179_21
  5084     03BA  2BBC               	goto	u179_20
  5085     03BB                     u179_21:
  5086     03BB  2BB8               	goto	i1l140
  5087     03BC                     u179_20:
  5088     03BC                     i1l2305:
  5089                           
  5090                           ;main.c: 138:             B4Flag = 1;
  5091     03BC  3001               	movlw	1
  5092     03BD  00BF               	movwf	_B4Flag
  5093     03BE  3000               	movlw	0
  5094     03BF  00C0               	movwf	_B4Flag+1
  5095     03C0                     i1l2307:
  5096                           
  5097                           ;main.c: 140:         INTCONbits.RBIF = 0;
  5098     03C0  100B               	bcf	11,0	;volatile
  5099     03C1                     i1l143:
  5100     03C1  087B               	movf	??_isr+3,w
  5101     03C2  00FF               	movwf	btemp+1
  5102     03C3  087A               	movf	??_isr+2,w
  5103     03C4  008A               	movwf	10
  5104     03C5  0879               	movf	??_isr+1,w
  5105     03C6  0084               	movwf	4
  5106     03C7  0E78               	swapf	??_isr,w
  5107     03C8  0083               	movwf	3
  5108     03C9  0EFE               	swapf	btemp,f
  5109     03CA  0E7E               	swapf	btemp,w
  5110     03CB  0009               	retfie
  5111     03CC                     __end_of_isr:
  5112                           
  5113                           	psect	intentry
  5114     0004                     __pintentry:	
  5115                           ;incstack = 0
  5116                           ; Regs used in _isr: [wreg-fsr0h+status,2+status,0+btemp+1+pclath+cstack]
  5117                           
  5118     0004                     interrupt_function:
  5119     007E                     saved_w	set	btemp
  5120     0004  00FE               	movwf	btemp
  5121     0005  0E03               	swapf	3,w
  5122     0006  00F8               	movwf	??_isr
  5123     0007  0804               	movf	4,w
  5124     0008  00F9               	movwf	??_isr+1
  5125     0009  080A               	movf	10,w
  5126     000A  00FA               	movwf	??_isr+2
  5127     000B  087F               	movf	btemp+1,w
  5128     000C  00FB               	movwf	??_isr+3
  5129     000D  120A  118A  2B12   	ljmp	_isr
  5130                           
  5131                           	psect	text23
  5132     0751                     __ptext23:	
  5133 ;; *************** function i1_LEDpos *****************
  5134 ;; Defined at:
  5135 ;;		line 308 in file "main.c"
  5136 ;; Parameters:    Size  Location     Type
  5137 ;;		None
  5138 ;; Auto vars:     Size  Location     Type
  5139 ;;		None
  5140 ;; Return value:  Size  Location     Type
  5141 ;;                  1    wreg      void 
  5142 ;; Registers used:
  5143 ;;		wreg, fsr0l, fsr0h, status,2, status,0
  5144 ;; Tracked objects:
  5145 ;;		On entry : 0/0
  5146 ;;		On exit  : 0/0
  5147 ;;		Unchanged: 0/0
  5148 ;; Data sizes:     COMMON   BANK0   BANK1   BANK3   BANK2
  5149 ;;      Params:         0       0       0       0       0
  5150 ;;      Locals:         0       0       0       0       0
  5151 ;;      Temps:          0       0       0       0       0
  5152 ;;      Totals:         0       0       0       0       0
  5153 ;;Total ram usage:        0 bytes
  5154 ;; Hardware stack levels used: 1
  5155 ;; This function calls:
  5156 ;;		Nothing
  5157 ;; This function is called by:
  5158 ;;		_isr
  5159 ;; This function uses a non-reentrant model
  5160 ;;
  5161                           
  5162     0751                     i1_LEDpos:	
  5163                           ;psect for function i1_LEDpos
  5164                           
  5165     0751                     i1l2211:	
  5166                           ;incstack = 0
  5167                           ; Regs used in i1_LEDpos: [wreg-fsr0h+status,2+status,0]
  5168                           
  5169                           
  5170                           ;main.c: 309:     switch (pos){
  5171     0751  2F6E               	goto	i1l2223
  5172     0752                     i1l2213:
  5173                           
  5174                           ;main.c: 311:             PORTD = (PORTD & 0xF0) | 0x01;
  5175     0752  1283               	bcf	3,5	;RP0=0, select bank0
  5176     0753  1303               	bcf	3,6	;RP1=0, select bank0
  5177     0754  0808               	movf	8,w	;volatile
  5178     0755  39F0               	andlw	240
  5179     0756  3801               	iorlw	1
  5180     0757  0088               	movwf	8	;volatile
  5181                           
  5182                           ;main.c: 312:             break;
  5183     0758  2F81               	goto	i1l220
  5184     0759                     i1l2215:
  5185                           
  5186                           ;main.c: 314:             PORTD = (PORTD & 0xF0) | 0x02;
  5187     0759  1283               	bcf	3,5	;RP0=0, select bank0
  5188     075A  1303               	bcf	3,6	;RP1=0, select bank0
  5189     075B  0808               	movf	8,w	;volatile
  5190     075C  39F0               	andlw	240
  5191     075D  3802               	iorlw	2
  5192     075E  0088               	movwf	8	;volatile
  5193                           
  5194                           ;main.c: 315:             break;
  5195     075F  2F81               	goto	i1l220
  5196     0760                     i1l2217:
  5197                           
  5198                           ;main.c: 317:             PORTD = (PORTD & 0xF0) | 0x04;
  5199     0760  1283               	bcf	3,5	;RP0=0, select bank0
  5200     0761  1303               	bcf	3,6	;RP1=0, select bank0
  5201     0762  0808               	movf	8,w	;volatile
  5202     0763  39F0               	andlw	240
  5203     0764  3804               	iorlw	4
  5204     0765  0088               	movwf	8	;volatile
  5205                           
  5206                           ;main.c: 318:             break;
  5207     0766  2F81               	goto	i1l220
  5208     0767                     i1l2219:
  5209                           
  5210                           ;main.c: 320:             PORTD = (PORTD & 0xF0) | 0x08;
  5211     0767  1283               	bcf	3,5	;RP0=0, select bank0
  5212     0768  1303               	bcf	3,6	;RP1=0, select bank0
  5213     0769  0808               	movf	8,w	;volatile
  5214     076A  39F0               	andlw	240
  5215     076B  3808               	iorlw	8
  5216     076C  0088               	movwf	8	;volatile
  5217                           
  5218                           ;main.c: 321:             break;
  5219     076D  2F81               	goto	i1l220
  5220     076E                     i1l2223:
  5221                           
  5222                           ; Switch on 2 bytes has been partitioned into a top level switch of size 1, and 1 sub-sw
      +                          itches
  5223                           ; Switch size 1, requested type "simple"
  5224                           ; Number of cases is 1, Range of values is 0 to 0
  5225                           ; switch strategies available:
  5226                           ; Name         Instructions Cycles
  5227                           ; simple_byte            4     3 (average)
  5228                           ; direct_byte           11     8 (fixed)
  5229                           ; jumptable            260     6 (fixed)
  5230                           ;	Chosen strategy is simple_byte
  5231     076E  0871               	movf	_pos+1,w
  5232     076F  3A00               	xorlw	0	; case 0
  5233     0770  1903               	skipnz
  5234     0771  2F73               	goto	i1l3045
  5235     0772  2F81               	goto	i1l220
  5236     0773                     i1l3045:
  5237                           
  5238                           ; Switch size 1, requested type "simple"
  5239                           ; Number of cases is 4, Range of values is 1 to 4
  5240                           ; switch strategies available:
  5241                           ; Name         Instructions Cycles
  5242                           ; simple_byte           13     7 (average)
  5243                           ; direct_byte           23    11 (fixed)
  5244                           ; jumptable            263     9 (fixed)
  5245                           ;	Chosen strategy is simple_byte
  5246     0773  0870               	movf	_pos,w
  5247     0774  3A01               	xorlw	1	; case 1
  5248     0775  1903               	skipnz
  5249     0776  2F52               	goto	i1l2213
  5250     0777  3A03               	xorlw	3	; case 2
  5251     0778  1903               	skipnz
  5252     0779  2F59               	goto	i1l2215
  5253     077A  3A01               	xorlw	1	; case 3
  5254     077B  1903               	skipnz
  5255     077C  2F60               	goto	i1l2217
  5256     077D  3A07               	xorlw	7	; case 4
  5257     077E  1903               	skipnz
  5258     077F  2F67               	goto	i1l2219
  5259     0780  2F81               	goto	i1l220
  5260     0781                     i1l220:
  5261     0781  0008               	return
  5262     0782                     __end_ofi1_LEDpos:
  5263                           
  5264                           	psect	text24
  5265     07D0                     __ptext24:	
  5266 ;; *************** function i1_LEDmod *****************
  5267 ;; Defined at:
  5268 ;;		line 325 in file "main.c"
  5269 ;; Parameters:    Size  Location     Type
  5270 ;;		None
  5271 ;; Auto vars:     Size  Location     Type
  5272 ;;		None
  5273 ;; Return value:  Size  Location     Type
  5274 ;;                  1    wreg      void 
  5275 ;; Registers used:
  5276 ;;		wreg, fsr0l, fsr0h, status,2, status,0
  5277 ;; Tracked objects:
  5278 ;;		On entry : 0/0
  5279 ;;		On exit  : 0/0
  5280 ;;		Unchanged: 0/0
  5281 ;; Data sizes:     COMMON   BANK0   BANK1   BANK3   BANK2
  5282 ;;      Params:         0       0       0       0       0
  5283 ;;      Locals:         0       0       0       0       0
  5284 ;;      Temps:          0       0       0       0       0
  5285 ;;      Totals:         0       0       0       0       0
  5286 ;;Total ram usage:        0 bytes
  5287 ;; Hardware stack levels used: 1
  5288 ;; This function calls:
  5289 ;;		Nothing
  5290 ;; This function is called by:
  5291 ;;		_isr
  5292 ;; This function uses a non-reentrant model
  5293 ;;
  5294                           
  5295     07D0                     i1_LEDmod:	
  5296                           ;psect for function i1_LEDmod
  5297                           
  5298     07D0                     i1l2229:	
  5299                           ;incstack = 0
  5300                           ; Regs used in i1_LEDmod: [wreg-fsr0h+status,2+status,0]
  5301                           
  5302                           
  5303                           ;main.c: 326:     switch (modo){
  5304     07D0  2FE6               	goto	i1l2239
  5305     07D1                     i1l2231:
  5306                           
  5307                           ;main.c: 328:             PORTD = (PORTD & 0x0F) | 0x10;
  5308     07D1  1283               	bcf	3,5	;RP0=0, select bank0
  5309     07D2  1303               	bcf	3,6	;RP1=0, select bank0
  5310     07D3  0808               	movf	8,w	;volatile
  5311     07D4  390F               	andlw	15
  5312     07D5  3810               	iorlw	16
  5313     07D6  0088               	movwf	8	;volatile
  5314                           
  5315                           ;main.c: 329:             break;
  5316     07D7  2FF6               	goto	i1l228
  5317     07D8                     i1l2233:
  5318                           
  5319                           ;main.c: 331:             PORTD = (PORTD & 0x0F) | 0x20;
  5320     07D8  1283               	bcf	3,5	;RP0=0, select bank0
  5321     07D9  1303               	bcf	3,6	;RP1=0, select bank0
  5322     07DA  0808               	movf	8,w	;volatile
  5323     07DB  390F               	andlw	15
  5324     07DC  3820               	iorlw	32
  5325     07DD  0088               	movwf	8	;volatile
  5326                           
  5327                           ;main.c: 332:             break;
  5328     07DE  2FF6               	goto	i1l228
  5329     07DF                     i1l2235:
  5330                           
  5331                           ;main.c: 334:             PORTD = (PORTD & 0x0F) | 0x40;
  5332     07DF  1283               	bcf	3,5	;RP0=0, select bank0
  5333     07E0  1303               	bcf	3,6	;RP1=0, select bank0
  5334     07E1  0808               	movf	8,w	;volatile
  5335     07E2  390F               	andlw	15
  5336     07E3  3840               	iorlw	64
  5337     07E4  0088               	movwf	8	;volatile
  5338                           
  5339                           ;main.c: 335:             break;
  5340     07E5  2FF6               	goto	i1l228
  5341     07E6                     i1l2239:
  5342                           
  5343                           ; Switch on 2 bytes has been partitioned into a top level switch of size 1, and 1 sub-sw
      +                          itches
  5344                           ; Switch size 1, requested type "simple"
  5345                           ; Number of cases is 1, Range of values is 0 to 0
  5346                           ; switch strategies available:
  5347                           ; Name         Instructions Cycles
  5348                           ; simple_byte            4     3 (average)
  5349                           ; direct_byte           11     8 (fixed)
  5350                           ; jumptable            260     6 (fixed)
  5351                           ;	Chosen strategy is simple_byte
  5352     07E6  0873               	movf	_modo+1,w
  5353     07E7  3A00               	xorlw	0	; case 0
  5354     07E8  1903               	skipnz
  5355     07E9  2FEB               	goto	i1l3047
  5356     07EA  2FF6               	goto	i1l228
  5357     07EB                     i1l3047:
  5358                           
  5359                           ; Switch size 1, requested type "simple"
  5360                           ; Number of cases is 3, Range of values is 0 to 2
  5361                           ; switch strategies available:
  5362                           ; Name         Instructions Cycles
  5363                           ; simple_byte           10     6 (average)
  5364                           ; direct_byte           17     8 (fixed)
  5365                           ; jumptable            260     6 (fixed)
  5366                           ;	Chosen strategy is simple_byte
  5367     07EB  0872               	movf	_modo,w
  5368     07EC  3A00               	xorlw	0	; case 0
  5369     07ED  1903               	skipnz
  5370     07EE  2FD1               	goto	i1l2231
  5371     07EF  3A01               	xorlw	1	; case 1
  5372     07F0  1903               	skipnz
  5373     07F1  2FD8               	goto	i1l2233
  5374     07F2  3A03               	xorlw	3	; case 2
  5375     07F3  1903               	skipnz
  5376     07F4  2FDF               	goto	i1l2235
  5377     07F5  2FF6               	goto	i1l228
  5378     07F6                     i1l228:
  5379     07F6  0008               	return
  5380     07F7                     __end_ofi1_LEDmod:
  5381                           
  5382                           	psect	text25
  5383     0F5A                     __ptext25:	
  5384 ;; *************** function _hightime *****************
  5385 ;; Defined at:
  5386 ;;		line 219 in file "main.c"
  5387 ;; Parameters:    Size  Location     Type
  5388 ;;  tdelay          2    0[COMMON] int 
  5389 ;; Auto vars:     Size  Location     Type
  5390 ;;		None
  5391 ;; Return value:  Size  Location     Type
  5392 ;;                  1    wreg      void 
  5393 ;; Registers used:
  5394 ;;		wreg, status,2, status,0, btemp+1
  5395 ;; Tracked objects:
  5396 ;;		On entry : 0/0
  5397 ;;		On exit  : 0/0
  5398 ;;		Unchanged: 0/0
  5399 ;; Data sizes:     COMMON   BANK0   BANK1   BANK3   BANK2
  5400 ;;      Params:         2       0       0       0       0
  5401 ;;      Locals:         0       0       0       0       0
  5402 ;;      Temps:          0       0       0       0       0
  5403 ;;      Totals:         2       0       0       0       0
  5404 ;;Total ram usage:        2 bytes
  5405 ;; Hardware stack levels used: 1
  5406 ;; This function calls:
  5407 ;;		Nothing
  5408 ;; This function is called by:
  5409 ;;		_isr
  5410 ;; This function uses a non-reentrant model
  5411 ;;
  5412                           
  5413     0F5A                     _hightime:	
  5414                           ;psect for function _hightime
  5415                           
  5416     0F5A                     i1l1993:	
  5417                           ;incstack = 0
  5418                           ; Regs used in _hightime: [wreg+status,2+status,0+btemp+1]
  5419                           
  5420                           
  5421                           ;main.c: 220:     while (tdelay > 0){
  5422     0F5A  2F63               	goto	i1l1997
  5423     0F5B                     i1l1995:
  5424                           
  5425                           ;main.c: 221:         tdelay = tdelay - 1;
  5426     0F5B  0876               	movf	hightime@tdelay,w
  5427     0F5C  3EFF               	addlw	255
  5428     0F5D  00F6               	movwf	hightime@tdelay
  5429     0F5E  0877               	movf	hightime@tdelay+1,w
  5430     0F5F  1803               	skipnc
  5431     0F60  3E01               	addlw	1
  5432     0F61  3EFF               	addlw	255
  5433     0F62  00F7               	movwf	hightime@tdelay+1
  5434     0F63                     i1l1997:
  5435                           
  5436                           ;main.c: 220:     while (tdelay > 0){
  5437     0F63  0877               	movf	hightime@tdelay+1,w
  5438     0F64  3A80               	xorlw	128
  5439     0F65  00FF               	movwf	btemp+1
  5440     0F66  3080               	movlw	128
  5441     0F67  027F               	subwf	btemp+1,w
  5442     0F68  1D03               	skipz
  5443     0F69  2F6C               	goto	u131_25
  5444     0F6A  3001               	movlw	1
  5445     0F6B  0276               	subwf	hightime@tdelay,w
  5446     0F6C                     u131_25:
  5447     0F6C  1803               	skipnc
  5448     0F6D  2F6F               	goto	u131_21
  5449     0F6E  2F70               	goto	u131_20
  5450     0F6F                     u131_21:
  5451     0F6F  2F5B               	goto	i1l1995
  5452     0F70                     u131_20:
  5453     0F70                     i1l172:
  5454     0F70  0008               	return
  5455     0F71                     __end_of_hightime:
  5456     007E                     btemp	set	126	;btemp
  5457     007E                     wtemp0	set	126
  5458                           
  5459                           	psect	idloc
  5460                           
  5461                           ;Config register IDLOC0 @ 0x2000
  5462                           ;	unspecified, using default values
  5463     2000                     	org	8192
  5464     2000  3FFF               	dw	16383
  5465                           
  5466                           ;Config register IDLOC1 @ 0x2001
  5467                           ;	unspecified, using default values
  5468     2001                     	org	8193
  5469     2001  3FFF               	dw	16383
  5470                           
  5471                           ;Config register IDLOC2 @ 0x2002
  5472                           ;	unspecified, using default values
  5473     2002                     	org	8194
  5474     2002  3FFF               	dw	16383
  5475                           
  5476                           ;Config register IDLOC3 @ 0x2003
  5477                           ;	unspecified, using default values
  5478     2003                     	org	8195
  5479     2003  3FFF               	dw	16383
  5480                           
  5481                           	psect	config
  5482                           
  5483                           ;Config register CONFIG1 @ 0x2007
  5484                           ;	Oscillator Selection bits
  5485                           ;	FOSC = INTRC_NOCLKOUT, INTOSCIO oscillator: I/O function on RA6/OSC2/CLKOUT pin, I/O f
      +                          unction on RA7/OSC1/CLKIN
  5486                           ;	Watchdog Timer Enable bit
  5487                           ;	WDTE = OFF, WDT disabled and can be enabled by SWDTEN bit of the WDTCON register
  5488                           ;	Power-up Timer Enable bit
  5489                           ;	PWRTE = OFF, PWRT disabled
  5490                           ;	RE3/MCLR pin function select bit
  5491                           ;	MCLRE = OFF, RE3/MCLR pin function is digital input, MCLR internally tied to VDD
  5492                           ;	Code Protection bit
  5493                           ;	CP = OFF, Program memory code protection is disabled
  5494                           ;	Data Code Protection bit
  5495                           ;	CPD = OFF, Data memory code protection is disabled
  5496                           ;	Brown Out Reset Selection bits
  5497                           ;	BOREN = OFF, BOR disabled
  5498                           ;	Internal External Switchover bit
  5499                           ;	IESO = OFF, Internal/External Switchover mode is disabled
  5500                           ;	Fail-Safe Clock Monitor Enabled bit
  5501                           ;	FCMEN = OFF, Fail-Safe Clock Monitor is disabled
  5502                           ;	Low Voltage Programming Enable bit
  5503                           ;	LVP = OFF, RB3 pin has digital I/O, HV on MCLR must be used for programming
  5504                           ;	In-Circuit Debugger Mode bit
  5505                           ;	DEBUG = 0x1, unprogramme  5506     2007                     	org	8199
  5507     2007  20D4               	dw	8404
  5508                           
  5509                           ;Config register CONFIG2 @ 0x2008
  5510                           ;	Brown-out Reset Selection bit
  5511                           ;	BOR4V = BOR40V, Brown-out Reset set to 4.0V
  5512                           ;	Flash Program Memory Self Write Enable bits
  5513                           ;	WRT = OFF, Write protection off
  5514     2008                     	org	8200
  5515     2008  3FFF               	dw	16383

Data Sizes:
    Strings     0
    Constant    0
    Data        0
    BSS         23
    Persistent  0
    Stack       0

Auto Spaces:
    Space          Size  Autos    Used
    COMMON           14      6      12
    BANK0            80     31      48
    BANK1            80      0       0
    BANK3            96      0       0
    BANK2            96      0       0

Pointer List with Targets:

    None.

Critical Paths under _main in COMMON

    None.

Critical Paths under _isr in COMMON

    _isr->_hightime

Critical Paths under _main in BANK0

    _main->_controlservos
    _controlservos->_mapeo
    _adafruitrec->_mapeo
    _writepos->_write_EEPROM
    _mapeo->___awdiv
    ___awdiv->___wmul
    _lecpos->_read_EEPROM
    _convint->___wmul

Critical Paths under _isr in BANK0

    None.

Critical Paths under _main in BANK1

    None.

Critical Paths under _isr in BANK1

    None.

Critical Paths under _main in BANK3

    None.

Critical Paths under _isr in BANK3

    None.

Critical Paths under _main in BANK2

    None.

Critical Paths under _isr in BANK2

    None.

Call Graph Tables:

 ---------------------------------------------------------------------------------
 (Depth) Function   	        Calls       Base Space   Used Autos Params    Refs
 ---------------------------------------------------------------------------------
 (0) _main                                                 1     1      0   13495
                                             30 BANK0      1     1      0
                        _adafruitrec
                      _controlservos
                           _initUART
                             _lecpos
                              _setup
                        _setupINTOSC
                           _setupPWM
                          _setupTMR0
                          _setup_ADC
                        _setup_portb
                           _writepos
 ---------------------------------------------------------------------------------
 (1) _setup_portb                                          0     0      0       0
 ---------------------------------------------------------------------------------
 (1) _setup_ADC                                            1     1      0       0
                                              0 BANK0      1     1      0
 ---------------------------------------------------------------------------------
 (1) _setupTMR0                                            0     0      0       0
 ---------------------------------------------------------------------------------
 (1) _setupPWM                                             0     0      0       0
 ---------------------------------------------------------------------------------
 (1) _setupINTOSC                                          1     1      0     248
                                              0 BANK0      1     1      0
 ---------------------------------------------------------------------------------
 (1) _setup                                                0     0      0       0
 ---------------------------------------------------------------------------------
 (1) _initUART                                             0     0      0       0
 ---------------------------------------------------------------------------------
 (1) _controlservos                                        3     3      0    4948
                                             27 BANK0      3     3      0
                              _mapeo
 ---------------------------------------------------------------------------------
 (1) _adafruitrec                                          2     2      0    7574
                                             27 BANK0      2     2      0
                             _LEDmod
                             _LEDpos
                            _convint
                             _lecpos
                         _lecturanum
                              _mapeo
                           _writepos
 ---------------------------------------------------------------------------------
 (1) _writepos                                             2     2      0     558
                                              2 BANK0      2     2      0
                       _write_EEPROM
 ---------------------------------------------------------------------------------
 (2) _write_EEPROM                                         2     1      1     422
                                              0 BANK0      2     1      1
 ---------------------------------------------------------------------------------
 (2) _mapeo                                               12     2     10    4948
                                             15 BANK0     12     2     10
                            ___awdiv
                             ___wmul
 ---------------------------------------------------------------------------------
 (3) ___awdiv                                              9     5      4     452
                                              6 BANK0      9     5      4
                             ___wmul (ARG)
 ---------------------------------------------------------------------------------
 (2) _lecturanum                                           0     0      0       0
 ---------------------------------------------------------------------------------
 (1) _lecpos                                               4     4      0     167
                                              1 BANK0      4     4      0
                        _read_EEPROM
 ---------------------------------------------------------------------------------
 (2) _read_EEPROM                                          1     1      0      31
                                              0 BANK0      1     1      0
 ---------------------------------------------------------------------------------
 (2) _convint                                             13    11      2    1901
                                              6 BANK0     13    11      2
                             ___wmul
                          _chartoint
 ---------------------------------------------------------------------------------
 (3) _chartoint                                            3     1      2     310
                                              0 BANK0      3     1      2
 ---------------------------------------------------------------------------------
 (3) ___wmul                                               6     2      4     676
                                              0 BANK0      6     2      4
 ---------------------------------------------------------------------------------
 (2) _LEDpos                                               0     0      0       0
 ---------------------------------------------------------------------------------
 (2) _LEDmod                                               0     0      0       0
 ---------------------------------------------------------------------------------
 Estimated maximum stack depth 3
 ---------------------------------------------------------------------------------
 (Depth) Function   	        Calls       Base Space   Used Autos Params    Refs
 ---------------------------------------------------------------------------------
 (4) _isr                                                  4     4      0     197
                                              2 COMMON     4     4      0
                           _hightime
                           i1_LEDmod
                           i1_LEDpos
 ---------------------------------------------------------------------------------
 (5) i1_LEDpos                                             0     0      0       0
 ---------------------------------------------------------------------------------
 (5) i1_LEDmod                                             0     0      0       0
 ---------------------------------------------------------------------------------
 (5) _hightime                                             2     0      2     197
                                              0 COMMON     2     0      2
 ---------------------------------------------------------------------------------
 Estimated maximum stack depth 5
 ---------------------------------------------------------------------------------

 Call Graph Graphs:

 _main (ROOT)
   _adafruitrec
     _LEDmod
     _LEDpos
     _convint
       ___wmul
       _chartoint
     _lecpos
       _read_EEPROM
     _lecturanum
     _mapeo
       ___awdiv
         ___wmul (ARG)
       ___wmul
     _writepos
       _write_EEPROM
   _controlservos
     _mapeo
   _initUART
   _lecpos
   _setup
   _setupINTOSC
   _setupPWM
   _setupTMR0
   _setup_ADC
   _setup_portb
   _writepos

 _isr (ROOT)
   _hightime
   i1_LEDmod
   i1_LEDpos

 Address spaces:
Name               Size   Autos  Total    Cost      Usage
BITCOMMON            E      0       0       0        0.0%
EEDATA             100      0       0       0        0.0%
NULL                 0      0       0       0        0.0%
CODE                 0      0       0       0        0.0%
COMMON               E      6       C       1       85.7%
BITSFR0              0      0       0       1        0.0%
SFR0                 0      0       0       1        0.0%
BITSFR1              0      0       0       2        0.0%
SFR1                 0      0       0       2        0.0%
STACK                0      0       0       2        0.0%
ABS                  0      0      3C       3        0.0%
BITBANK0            50      0       0       4        0.0%
BITSFR3              0      0       0       4        0.0%
SFR3                 0      0       0       4        0.0%
BANK0               50     1F      30       5       60.0%
BITSFR2              0      0       0       5        0.0%
SFR2                 0      0       0       5        0.0%
BITBANK1            50      0       0       6        0.0%
BANK1               50      0       0       7        0.0%
BITBANK3            60      0       0       8        0.0%
BANK3               60      0       0       9        0.0%
BITBANK2            60      0       0      10        0.0%
BANK2               60      0       0      11        0.0%
DATA                 0      0      3C      12        0.0%


Microchip Technology PIC Macro Assembler V2.40 build 20220703182018 
Symbol Table                                                                                   Fri Nov 18 23:52:21 2022

                     _RD 0C60                       _WR 0C61             ___awdiv@sign 002C  
                     fsr 0004      ___wmul@multiplicand 0022           mapeo@resultado 0039  
                    l210 01A8                      l211 01CB                      l220 0750  
                    l160 0F47                      l234 062D                      l330 0FFF  
                    l251 0F8B                      l307 06EA                      l163 0F3A  
                    l228 07CF                      l244 0479                      l260 0FA0  
                    l324 0FEB                      l254 0F92                      l238 0658  
                    l326 0FEF                      l166 0F59                      l191 007A  
                    l271 02A0                      l263 01DA                      l327 0FF8  
                    l248 04B6                      l192 007B                      l184 0051  
                    l176 0027                      l257 0F99                      l185 0052  
                    l177 0028                      l273 02A4                      l265 01DE  
                    l345 0F87                      l329 0FFC                      l362 0526  
                    l370 06B2                      l290 05EA                      l275 02DA  
                    l267 0234                      l292 05F7                      l284 059D  
                    l349 0526                      l373 071F                      l277 02DE  
                    l269 0238                      l285 05AA                      l390 0FBF  
                    l198 00AB                      l286 05B7                      l279 0311  
                    l287 05C4                      l288 05D1                      l393 0FDD  
                    l289 05DE                      l396 0FA4                      l485 0790  
                    l638 058F                      l487 07A8                      l399 0FBB  
                    _PR2 0092                      _dec 004F                      _isr 0312  
                    _pos 0070                      fsr0 0004                      _uni 004D  
                    indf 0000                     l3041 0742                     l3043 07C4  
                   l2501 04D4                     l3039 01B4                     l2603 073D  
                   l2531 04FA                     l2523 04EF                     l2515 04E4  
                   l2507 04D9                     l2611 05FE                     l2541 050B  
                   l2533 0500                     l2525 04F5                     l2517 04EA  
                   l2509 04DF                     l2461 0FD4                     l2621 061F  
                   l2613 0603                     l2701 05CB                     l2471 0FA4  
                   l2463 0FD5                     l2455 0FBF                     l2631 064D  
                   l2623 0626                     l2615 060A                     l2703 05D8  
                   l2711 06B3                     l2561 0782                     l2473 0FAA  
                   l2641 045D                     l2633 0444                     l2465 0FDA  
                   l2457 0FC5                     l2617 0611                     l2625 062D  
                   l2609 05F8                     l2801 00A0                     l2705 05E4  
                   l2721 0FE8                     l2713 06E3                     l2571 07A4  
                   l2563 0786                     l2555 051B                     l2547 0510  
                   l2539 0505                     l2491 04C3                     l2483 04BA  
                   l2475 0FAE                     l2651 0489                     l2643 0464  
                   l2635 044A                     l1851 0535                     l1843 0527  
                   l2467 0FDB                     l2459 0FD1                     l2627 0637  
                   l2619 0618                     l2811 00BB                     l2803 00A6  
                   l2707 05F0                     l2723 0FEA                     l2715 0FDE  
                   l2731 0F4F                     l2581 07B8                     l2565 078A  
                   l2557 0521                     l2549 0516                     l2493 04C9  
                   l2485 04C0                     l2477 0FB4                     l2653 0498  
                   l2645 046B                     l2637 044F                     l2661 0F91  
                   l1861 054A                     l1853 0539                     l1845 052A  
                   l2469 0FDC                     l2629 0642                     l2821 016B  
                   l2813 00F1                     l2805 00AB                     l2709 05F4  
                   l2725 0FF3                     l2717 0FE1                     l2733 0F53  
                   l2741 0F34                     l2901 03F9                     l2575 07A9  
                   l2591 0720                     l2567 0797                     l2671 065C  
                   l2479 0FB7                     l2655 04A7                     l2647 0472  
                   l2639 0456                     l2663 0F96                     l1871 056D  
                   l1863 054D                     l1855 053E                     l1847 052E  
                   l2823 0172                     l2815 00F8                     l2807 00B0  
                   l2751 0F79                     l2727 0FF7                     l2719 0FE7  
                   l2735 0F57                     l2743 0F39                     l2911 0417  
                   l2903 03FF                     l2577 07AA                     l2585 07BF  
                   l2593 0721                     l2569 079E                     l2649 0479  
                   l2665 0F98                     l2657 0F88                     l1881 0586  
                   l1873 0573                     l1865 0554                     l1857 0542  
                   l1849 0533                     l2817 012E                     l2809 00B4  
                   l2825 01AA                     l2841 01E5                     l2833 01CC  
                   l2761 0F86                     l2753 0F7C                     l2745 0F71  
                   l2681 0F3B                     l2729 0F48                     l2737 0F2F  
                   l2921 0434                     l2913 0419                     l2905 0404  
                   l2579 07B1                     l2595 0728                     l2499 04CE  
                   l2667 0F9D                     l2659 0F8F                     l1883 058B  
                   l1875 0574                     l1867 0558                     l1859 0544  
                   l2675 06EB                     l2819 0135                     l2771 0040  
                   l2763 0026                     l2851 0226                     l2843 0206  
                   l2835 01D0                     l2755 0F7D                     l2747 0F75  
                   l2683 0F3E                     l2691 0593                     l2739 0F33  
                   l2923 0436                     l2915 041E                     l2907 040A  
                   l2597 072F                     l2669 0F9F                     l1877 057B  
                   l1869 055C                     l2677 071B                     l2781 0062  
                   l2773 0049                     l2765 002C                     l2861 0260  
                   l2853 022A                     l2845 020C                     l2837 01D7  
                   l2757 0F80                     l2749 0F76                     l2685 0F42  
                   l2693 0599                     l2925 043B                     l2909 040F  
                   l2917 0426                     l2599 0736                     l1879 0581  
                   l2791 0085                     l2783 0068                     l2775 004B  
                   l2767 0032                     l2871 0292                     l2863 0266  
                   l2855 0231                     l2847 021C                     l2839 01DF  
                   l2759 0F83                     l2687 0F43                     l2695 05A4  
                   l2919 042C                     l2793 008A                     l2785 006E  
                   l2777 0056                     l2769 0033                     l2881 02CC  
                   l2873 0296                     l2865 0276                     l2857 0239  
                   l2849 0224                     l2689 0F46                     l2697 05B1  
                   l2795 0090                     l2787 0074                     l2779 005C  
                   l2891 0306                     l2883 02D0                     l2875 029D  
                   l2867 027F                     l2859 023F                     l2699 05BE  
                   l2797 0095                     l2789 007F                     l2885 02D7  
                   l2877 02A5                     l2869 0290                     l2893 03CC  
                   l2799 009B                     l2887 02DF                     l2879 02AB  
                   l2895 03F0                     l2889 02E5                     l2897 03F4  
                   l2899 03F8                     _ADIF 0066                     ?_isr 0076  
                   u1100 052E                     u1101 052D                     u1110 0539  
                   u1111 0538                     u1120 054A                     u1121 0549  
                   u2010 07A4                     u2011 07A3                     u2100 0F8F  
                   u1140 055C                     u2020 05FE                     u2005 0798  
                   u2101 0F8E                     u1141 055B                     u2021 05FD  
                   u2110 0F96                     u2030 060A                     u2111 0F95  
                   u1135 054E                     u2031 0609                     u2120 0F9D  
                   u1160 056D                     u2040 0618                     u2200 05F0  
                   u2121 0F9C                     u1161 056C                     u2041 0617  
                   u2201 05EF                     u2050 0626                     u2130 0599  
                   u2210 0FEF                     u1155 055D                     u2051 0625  
                   u2131 0598                     u2211 0FEE                     u2060 044A  
                   u1180 0581                     u2300 0074                     u2140 05A4  
                   u2220 0FFC                     _IOCB 0096                     u2061 0449  
                   u1181 0580                     u1165 0569                     u2301 0073  
                   u2141 05A3                     u2221 0FFB                     u2070 0456  
                   u1190 0586                     u2310 007F                     u2230 002C  
                   u2150 05B1                     u2071 0455                     u1191 0585  
                   u1175 0575                     u2311 007E                     u2231 002B  
                   u2151 05B0                     u2080 0464                     u2320 0085  
                   u2240 0032                     u2400 01DE                     u2160 05BE  
                   u2081 0463                     u2321 0084                     u2241 0031  
                   u2401 01DD                     u2161 05BD                     u2090 0472  
                   u2330 0090                     u2250 0040                     u2410 01E5  
                   u2170 05CB                     u2091 0471                     u2331 008F  
                   u2251 003F                     u2411 01E4                     u2171 05CA  
                   u2340 009B                     u2260 0056                     u2420 0238  
                   u2180 05D8                     u2500 0417                     u2341 009A  
                   u2261 0055                     u2421 0237                     u2181 05D7  
                   u2501 0416                     u2350 00A6                     u2270 005C  
                   u2430 023F                     u2190 05E4                     u2510 042C  
                   u2351 00A5                     u2271 005B                     u2255 003C  
                   u2431 023E                     u2191 05E3                     u2511 042B  
                   u2360 00BB                     u2280 0062                     u2440 02A4  
                   u2520 0434                     u2361 00BA                     u2281 0061  
                   u2441 02A3                     u2521 0433                     u2370 00F8  
                   u2290 006E                     u2450 02AB                     u2371 00F7  
                   u2291 006D                     u2451 02AA                     u1900 04D4  
                   u2380 0135                     u2460 02DE                     u1901 04D3  
                   u2381 0134                     u2461 02DD                     u1910 04DF  
                   u2390 0172                     u2470 02E5                     u1911 04DE  
                   u2391 0171                     u2471 02E4                     u1920 04EA  
                   u2480 03FF                     u1921 04E9                     u2537 0422  
                   u2481 03FE                     u1930 04F5                     u1850 0FC5  
                   u2490 040A                     u1931 04F4                     u1851 0FC4  
                   u2547 06E7                     u2491 0409                     u1940 0500  
                   u1860 0FAA                     u1941 04FF                     u1861 0FA9  
                   u2557 01D4                     u1950 050B                     u1870 0FAE  
                   u1951 050A                     u1871 0FAD                     u2567 022E  
                   u1960 0516                     u1880 04C0                     u1961 0515  
                   u1881 04BF                     u2577 029A                     u1970 0521  
                   u1890 04C9                     u1971 0520                     u1891 04C8  
                   u2587 02D4                     u1980 078A                     u1981 0789  
                   u2597 030C                     u1995 0791                     _RCIF 0065  
                   _TMR0 0001                     _WPUB 0095                     _cent 004E  
                   _cont 0041                     _main 03CC                     _modo 0072  
                   btemp 007E                     start 0010             ?_read_EEPROM 0076  
                  ??_isr 0078                    ?_main 0076          __end_of___awdiv 0590  
                  _EEADR 010D                    _EEDAT 010C          ___awdiv@divisor 0026  
                  i1l122 033F                    i1l220 0781                    i1l140 03B8  
                  i1l134 038F                    i1l143 03C1                    i1l128 0366  
                  i1l172 0F70                    i1l228 07F6         __end_ofi1_LEDmod 07F7  
       __end_ofi1_LEDpos 0782          ___awdiv@counter 002B                    _RCREG 001A  
                  _SPBRG 0099                    _PORTC 0007                    _PORTD 0008  
                  _TRISB 0086                    _TRISC 0087                    _TRISD 0088  
                  _v1PWM 004B                    _v2PWM 0049          __end_of_convint 06B3  
                  _vPWMh 0045                    _vPWMl 0047                    _mapeo 06EB  
                  _setup 0F3B                    pclath 000A            _controlservos 01CC  
                  status 0003                    wtemp0 007E              mapeo@outmax 0037  
            mapeo@outmin 0035          __initialization 0013             __end_of_main 0444  
                 ??_main 003E             _write_EEPROM 0FBC                   _B4Flag 003F  
                 ?_mapeo 002F                   _ADRESH 001E                   _CCPR1L 0015  
                 _CCPR2L 001B                   _EECON2 018D         ___awdiv@dividend 0028  
                 ?_setup 0076                   _ANSELH 0189                   i1l2211 0751  
                 i1l2213 0752                   i1l2301 03B2                   i1l2231 07D1  
                 i1l2215 0759                   i1l2223 076E                   i1l2233 07D8  
                 i1l2217 0760                   i1l2305 03BC                   i1l2235 07DF  
                 i1l2219 0767                   i1l2307 03C0                   i1l2251 031B  
                 i1l2229 07D0                   i1l3045 0773                   i1l2261 0332  
                 i1l2253 031C                   i1l2245 0312                   i1l3047 07EB  
                 i1l2239 07E6                   i1l2271 0350                   i1l2255 0325  
                 i1l2247 0316                   i1l2263 0335                   i1l2281 036A  
                 i1l2273 0359                   i1l2265 0339                   i1l2257 0328  
                 i1l2249 0317                   i1l2283 0377                   i1l2275 035B  
                 i1l2259 0329                   i1l2293 0393                   i1l2285 0380  
                 i1l2269 0343                   i1l2277 0360                   i1l2295 03A0  
                 i1l2287 0384                   i1l2297 03A9                   i1l2289 0389  
                 i1l2299 03AD                   u131_20 0F70                   u131_21 0F6F  
                 u131_25 0F6C                   i1l1993 0F5A                   i1l1995 0F5B  
                 i1l1997 0F63                   u170_20 0343                   u170_21 0342  
                 u171_20 0350                   u171_21 034F                   u171_25 034C  
                 u172_20 0366                   u172_21 0365                   u173_20 036A  
                 u173_21 0369                   u174_20 0377                   u174_21 0376  
                 u174_25 0373                   u175_20 038F                   u167_20 0316  
                 u175_21 038E                   u167_21 0315                   u176_20 0393  
                 u168_20 0339                   u176_21 0392                   u168_21 0338  
                 u177_20 03A0                   u169_20 033F                   u177_21 039F  
                 u169_21 033E                   u177_25 039C                   u178_20 03B8  
                 u178_21 03B7                   _LEDmod 07A9                   u179_20 03BC  
                 u179_21 03BB           ?_controlservos 0076                   _LEDpos 0720  
                 _TMR2IF 0061                   _SPBRGH 009A                   _TMR2ON 0092  
       __end_of_hightime 0F71                   ___wmul 0782                ??___awdiv 002A  
       __end_of_initUART 0F88                   _lecpos 0444         ___awdiv@quotient 002D  
           ?_setupINTOSC 0076                ??_convint 0028         __end_of_setupPWM 1000  
                 saved_w 007E         __end_of_writepos 0659             ?_setup_portb 0076  
__end_of__initialization 0022                ?i1_LEDmod 0076                ?i1_LEDpos 0076  
         __pcstackCOMMON 0076            __end_of_mapeo 0720            __end_of_setup 0F48  
     read_EEPROM@address 0020           _OPTION_REGbits 0081                  ??_mapeo 0039  
       write_EEPROM@data 0020          ??_controlservos 003B                  ??_setup 0020  
             __pbssBANK0 003F                  ?_LEDmod 0076                  ?_LEDpos 0076  
             ??i1_LEDmod 0076               ??i1_LEDpos 0076               __pmaintext 03CC  
                ?___wmul 0020               __pintentry 0004                  _CCP1CON 0017  
                _CCP2CON 001D                  ?_lecpos 0076            ??_adafruitrec 003B  
              ?_hightime 0076                ?_initUART 0076        __end_of_chartoint 0527  
             _lecturanum 0F88                ?_setupPWM 0076                  ___awdiv 0527  
              _ANSELbits 0188                  __ptext1 0F2F                  __ptext2 06B3  
                __ptext3 0F48                  __ptext4 0FDE                  __ptext5 0590  
                __ptext6 0F3B                  __ptext7 0F71                  __ptext8 01CC  
                __ptext9 0026                ?_writepos 0076                  _convint 0659  
              _T2CONbits 0012                  clrloop0 07F8     end_of_initialization 0022  
             ??_hightime 0078               ??_initUART 0020      write_EEPROM@address 0021  
    __end_of_adafruitrec 01CC        __end_of_setupTMR0 0F5A        __end_of_setup_ADC 06EB  
              _RCSTAbits 0018               ??_setupPWM 0020                _PORTAbits 0005  
              _PORTBbits 0006                _PORTCbits 0007                _PORTDbits 0008  
             ??_writepos 0022                _TRISAbits 0085                _TRISCbits 0087  
            _CCP1CONbits 0017           __end_of_LEDmod 07D0              _CCP2CONbits 001D  
              _TXSTAbits 0098           __end_of_LEDpos 0751              ?_lecturanum 0076  
         __end_of___wmul 07A9              _BAUDCTLbits 0187           __end_of_lecpos 04B7  
             lecpos@addr 0023               mapeo@inmax 0033               mapeo@inmin 0031  
           writepos@addr 0022      start_initialization 0013               mapeo@valor 002F  
            __end_of_isr 03CC              _adafruitrec 0026                 ??_LEDmod 0020  
               ??_LEDpos 0020           hightime@tdelay 0076            ??_read_EEPROM 0020  
               ??___wmul 0024                 ??_lecpos 0021              __pbssCOMMON 0070  
              ___latbits 0002            __pcstackBANK0 0020    __end_of_controlservos 0312  
        setupINTOSC@IRCF 0020                _chartoint 04B7                 ?___awdiv 0026  
        convint@centenas 002C      __end_of_read_EEPROM 0FBC                 ?_convint 0026  
          ?_write_EEPROM 0020          convint@unidades 0027        interrupt_function 0004  
         ___wmul@product 0024                clear_ram0 07F7                 i1_LEDmod 07D0  
               i1_LEDpos 0751               ?_chartoint 0020                 _PIR1bits 000C  
              _setupTMR0 0F48                _setup_ADC 06B3               _ADCON0bits 001F  
             _ADCON1bits 009F            ??_setupINTOSC 0020        ___wmul@multiplier 0020  
         ??_write_EEPROM 0021             chartoint@num 0022            ??_setup_portb 0020  
             _EECON1bits 018C              _read_EEPROM 0FA1             ??_lecturanum 0020  
             ?_setupTMR0 0076               ?_setup_ADC 0076           convint@decenas 0026  
           ?_adafruitrec 0076                 __ptext10 05F8                 __ptext11 0FBC  
               __ptext20 0720                 __ptext12 06EB                 __ptext21 07A9  
               __ptext13 0527                 __ptext22 0312                 __ptext14 0F88  
               __ptext23 0751                 __ptext15 0444                 __ptext24 07D0  
               __ptext16 0FA1                 __ptext25 0F5A                 __ptext17 0659  
               __ptext18 04B7                 __ptext19 0782      __end_of_setupINTOSC 05F8  
     __end_of_lecturanum 0FA1                 _hightime 0F5A                 _initUART 0F71  
            ??_chartoint 0022      __end_of_setup_portb 0F3B                 _setupPWM 0FDE  
             _HIGHpulse0 0074               _HIGHpulse1 0043                 convint@c 0031  
               convint@d 002F                 convint@u 002D                 _writepos 05F8  
             _INTCONbits 000B                 intlevel1 0000     __end_of_write_EEPROM 0FDE  
             _OSCCONbits 008F              ??_setupTMR0 0020              ??_setup_ADC 0020  
            _setupINTOSC 0590              _setup_portb 0F2F  
